---
triple:          'arm64-apple-darwin'
binary-path:     feeding_freindsy
relocations:
  - { offset: 0x5602, size: 0x8, addend: 0x0, symName: __ZNSt3__111__introsortINS_17_ClassicAlgPolicyERNS_6__lessIvvEEPNS_5tupleIJiiiEEELb0EEEvT1_S8_T0_NS_15iterator_traitsIS8_E15difference_typeEb, symObjAddr: 0x2F4C, symBinAddr: 0x100004788, symSize: 0x470 }
  - { offset: 0x572D, size: 0x8, addend: 0x0, symName: __ZNSt3__126__insertion_sort_unguardedB8ne180100INS_17_ClassicAlgPolicyERNS_6__lessIvvEEPNS_5tupleIJiiiEEEEEvT1_S8_T0_, symObjAddr: 0x367C, symBinAddr: 0x100004EB8, symSize: 0x128 }
  - { offset: 0x581D, size: 0x8, addend: 0x0, symName: __ZNSt3__111__sift_downB8ne180100INS_17_ClassicAlgPolicyERNS_6__lessIvvEEPNS_5tupleIJiiiEEEEEvT1_OT0_NS_15iterator_traitsIS8_E15difference_typeES8_, symObjAddr: 0x4FF8, symBinAddr: 0x100006834, symSize: 0x224 }
  - { offset: 0x58CA, size: 0x8, addend: 0x0, symName: __ZNSt3__117__floyd_sift_downB8ne180100INS_17_ClassicAlgPolicyERNS_6__lessIvvEEPNS_5tupleIJiiiEEEEET1_S8_OT0_NS_15iterator_traitsIS8_E15difference_typeE, symObjAddr: 0x53C0, symBinAddr: 0x100006BFC, symSize: 0x108 }
  - { offset: 0x5962, size: 0x8, addend: 0x0, symName: __ZNSt3__131__partition_with_equals_on_leftB8ne180100INS_17_ClassicAlgPolicyEPNS_5tupleIJiiiEEERNS_6__lessIvvEEEET0_S8_S8_T1_, symObjAddr: 0x39B0, symBinAddr: 0x1000051EC, symSize: 0x214 }
  - { offset: 0x5A1D, size: 0x8, addend: 0x0, symName: __ZNSt3__118__bitset_partitionB8ne180100INS_17_ClassicAlgPolicyEPNS_5tupleIJiiiEEERNS_6__lessIvvEEEENS_4pairIT0_bEES9_S9_T1_, symObjAddr: 0x3BC4, symBinAddr: 0x100005400, symSize: 0x33C }
  - { offset: 0x5B18, size: 0x8, addend: 0x0, symName: __ZNSt3__124__swap_bitmap_pos_withinB8ne180100INS_17_ClassicAlgPolicyEPNS_5tupleIJiiiEEEEEvRT0_S6_RyS7_, symObjAddr: 0x5B3C, symBinAddr: 0x100007378, symSize: 0x1E8 }
  - { offset: 0x5BE5, size: 0x8, addend: 0x0, symName: __ZNSt3__132__partition_with_equals_on_rightB8ne180100INS_17_ClassicAlgPolicyEPNS_5tupleIJiiiEEERNS_6__lessIvvEEEENS_4pairIT0_bEES9_S9_T1_, symObjAddr: 0x3F00, symBinAddr: 0x10000573C, symSize: 0x22C }
  - { offset: 0x5CAF, size: 0x8, addend: 0x0, symName: __ZNSt3__127__insertion_sort_incompleteB8ne180100INS_17_ClassicAlgPolicyERNS_6__lessIvvEEPNS_5tupleIJiiiEEEEEbT1_S8_T0_, symObjAddr: 0x412C, symBinAddr: 0x100005968, symSize: 0x30C }
  - { offset: 0x6C04, size: 0x8, addend: 0x0, symName: __ZNSt3__14sortB8ne180100INS_11__wrap_iterIPNS_5tupleIJiiiEEEEEEEvT_S6_, symObjAddr: 0x5D0, symBinAddr: 0x100001E0C, symSize: 0x3C }
  - { offset: 0x6C46, size: 0x8, addend: 0x0, symName: __ZNSt3__1neB8ne180100IPNS_5tupleIJiiiEEEEEbRKNS_11__wrap_iterIT_EES8_, symObjAddr: 0x66C, symBinAddr: 0x100001EA8, symSize: 0x34 }
  - { offset: 0x6C89, size: 0x8, addend: 0x0, symName: __ZNSt3__13tieB8ne180100IJiiiEEENS_5tupleIJDpRT_EEES4_, symObjAddr: 0x6B8, symBinAddr: 0x100001EF4, symSize: 0x40 }
  - { offset: 0x722E, size: 0x8, addend: 0x0, symName: __ZNSt3__13maxB8ne180100IiEERKT_S3_S3_, symObjAddr: 0x734, symBinAddr: 0x100001F70, symSize: 0x2C }
  - { offset: 0x7271, size: 0x8, addend: 0x0, symName: __ZNSt3__14endlB8ne180100IcNS_11char_traitsIcEEEERNS_13basic_ostreamIT_T0_EES7_, symObjAddr: 0x7AC, symBinAddr: 0x100001FE8, symSize: 0x58 }
  - { offset: 0x72B1, size: 0x8, addend: 0x0, symName: __ZNSt3__1eqB8ne180100IPNS_5tupleIJiiiEEEEEbRKNS_11__wrap_iterIT_EES8_, symObjAddr: 0x830, symBinAddr: 0x10000206C, symSize: 0x48 }
  - { offset: 0x732D, size: 0x8, addend: 0x0, symName: __ZNSt3__13maxB8ne180100IiNS_6__lessIvvEEEERKT_S5_S5_T0_, symObjAddr: 0xA18, symBinAddr: 0x100002254, symSize: 0x54 }
  - { offset: 0x742E, size: 0x8, addend: 0x0, symName: __ZNSt3__112__to_addressB8ne180100INS_5tupleIJiiiEEEEEPT_S4_, symObjAddr: 0xEB4, symBinAddr: 0x1000026F0, symSize: 0x14 }
  - { offset: 0x7463, size: 0x8, addend: 0x0, symName: __ZNSt3__119__libcpp_deallocateB8ne180100EPvmm, symObjAddr: 0xF20, symBinAddr: 0x10000275C, symSize: 0x60 }
  - { offset: 0x74C8, size: 0x8, addend: 0x0, symName: __ZNSt3__124__is_overaligned_for_newB8ne180100Em, symObjAddr: 0xF80, symBinAddr: 0x1000027BC, symSize: 0x20 }
  - { offset: 0x74F6, size: 0x8, addend: 0x0, symName: __ZNSt3__127__do_deallocate_handle_sizeB8ne180100IJSt11align_val_tEEEvPvmDpT_, symObjAddr: 0xFA0, symBinAddr: 0x1000027DC, symSize: 0x30 }
  - { offset: 0x7549, size: 0x8, addend: 0x0, symName: __ZNSt3__127__do_deallocate_handle_sizeB8ne180100IJEEEvPvmDpT_, symObjAddr: 0xFD0, symBinAddr: 0x10000280C, symSize: 0x28 }
  - { offset: 0x7587, size: 0x8, addend: 0x0, symName: __ZNSt3__124__libcpp_operator_deleteB8ne180100IJPvSt11align_val_tEEEvDpT_, symObjAddr: 0xFF8, symBinAddr: 0x100002834, symSize: 0x2C }
  - { offset: 0x75D0, size: 0x8, addend: 0x0, symName: __ZNSt3__124__libcpp_operator_deleteB8ne180100IJPvEEEvDpT_, symObjAddr: 0x1024, symBinAddr: 0x100002860, symSize: 0x24 }
  - { offset: 0x7624, size: 0x8, addend: 0x0, symName: __ZNSt3__13maxB8ne180100ImEERKT_S3_S3_, symObjAddr: 0x189C, symBinAddr: 0x1000030D8, symSize: 0x2C }
  - { offset: 0x7667, size: 0x8, addend: 0x0, symName: __ZNSt3__13minB8ne180100ImEERKT_S3_S3_, symObjAddr: 0x18C8, symBinAddr: 0x100003104, symSize: 0x2C }
  - { offset: 0x7894, size: 0x8, addend: 0x0, symName: __ZNSt3__13minB8ne180100ImNS_6__lessIvvEEEERKT_S5_S5_T0_, symObjAddr: 0x1954, symBinAddr: 0x100003190, symSize: 0x54 }
  - { offset: 0x78EE, size: 0x8, addend: 0x0, symName: __ZNSt3__120__throw_length_errorB8ne180100EPKc, symObjAddr: 0x1A34, symBinAddr: 0x100003270, symSize: 0x64 }
  - { offset: 0x7916, size: 0x8, addend: 0x0, symName: __ZNSt3__13maxB8ne180100ImNS_6__lessIvvEEEERKT_S5_S5_T0_, symObjAddr: 0x1B10, symBinAddr: 0x10000334C, symSize: 0x54 }
  - { offset: 0x7970, size: 0x8, addend: 0x0, symName: __ZNSt3__119__allocate_at_leastB8ne180100INS_9allocatorINS_5tupleIJiiiEEEEEEENS_19__allocation_resultINS_16allocator_traitsIT_E7pointerEEERS7_m, symObjAddr: 0x1C80, symBinAddr: 0x1000034BC, symSize: 0x40 }
  - { offset: 0x79B3, size: 0x8, addend: 0x0, symName: __ZNSt3__117__libcpp_allocateB8ne180100Emm, symObjAddr: 0x1E08, symBinAddr: 0x100003644, symSize: 0x60 }
  - { offset: 0x7A0D, size: 0x8, addend: 0x0, symName: __ZNSt3__121__libcpp_operator_newB8ne180100IJmSt11align_val_tEEEPvDpT_, symObjAddr: 0x1E68, symBinAddr: 0x1000036A4, symSize: 0x2C }
  - { offset: 0x7A5A, size: 0x8, addend: 0x0, symName: __ZNSt3__121__libcpp_operator_newB8ne180100IJmEEEPvDpT_, symObjAddr: 0x1E94, symBinAddr: 0x1000036D0, symSize: 0x24 }
  - { offset: 0x7A93, size: 0x8, addend: 0x0, symName: __ZNSt3__142__uninitialized_allocator_move_if_noexceptB8ne180100INS_9allocatorINS_5tupleIJiiiEEEEENS_16reverse_iteratorIPS3_EES7_S7_EET2_RT_T0_T1_S8_, symObjAddr: 0x1F1C, symBinAddr: 0x100003758, symSize: 0x12C }
  - { offset: 0x7B33, size: 0x8, addend: 0x0, symName: __ZNSt3__14swapB8ne180100IPNS_5tupleIJiiiEEEEENS_9enable_ifIXaasr21is_move_constructibleIT_EE5valuesr18is_move_assignableIS5_EE5valueEvE4typeERS5_S8_, symObjAddr: 0x2094, symBinAddr: 0x1000038D0, symSize: 0x3C }
  - { offset: 0x7B84, size: 0x8, addend: 0x0, symName: __ZNSt3__122__make_exception_guardB8ne180100INS_29_AllocatorDestroyRangeReverseINS_9allocatorINS_5tupleIJiiiEEEEENS_16reverse_iteratorIPS4_EEEEEENS_28__exception_guard_exceptionsIT_EESB_, symObjAddr: 0x20E4, symBinAddr: 0x100003920, symSize: 0x4C }
  - { offset: 0x7BBA, size: 0x8, addend: 0x0, symName: __ZNSt3__1neB8ne180100IPNS_5tupleIJiiiEEES3_EEbRKNS_16reverse_iteratorIT_EERKNS4_IT0_EE, symObjAddr: 0x2174, symBinAddr: 0x1000039B0, symSize: 0x48 }
  - { offset: 0x7C06, size: 0x8, addend: 0x0, symName: __ZNSt3__112__to_addressB8ne180100INS_16reverse_iteratorIPNS_5tupleIJiiiEEEEEvEEu7__decayIDTclsr19__to_address_helperIT_EE6__callclsr3stdE7declvalIRKS6_EEEEES8_, symObjAddr: 0x21F0, symBinAddr: 0x100003A2C, symSize: 0x24 }
  - { offset: 0x7C65, size: 0x8, addend: 0x0, symName: __ZNSt3__119__allocator_destroyB8ne180100INS_9allocatorINS_5tupleIJiiiEEEEENS_16reverse_iteratorINS5_IPS3_EEEES8_EEvRT_T0_T1_, symObjAddr: 0x24D0, symBinAddr: 0x100003D0C, symSize: 0x70 }
  - { offset: 0x7CCA, size: 0x8, addend: 0x0, symName: __ZNSt3__1neB8ne180100INS_16reverse_iteratorIPNS_5tupleIJiiiEEEEES5_EEbRKNS1_IT_EERKNS1_IT0_EE, symObjAddr: 0x257C, symBinAddr: 0x100003DB8, symSize: 0x60 }
  - { offset: 0x7D16, size: 0x8, addend: 0x0, symName: __ZNSt3__112__to_addressB8ne180100INS_16reverse_iteratorINS1_IPNS_5tupleIJiiiEEEEEEEvEEu7__decayIDTclsr19__to_address_helperIT_EE6__callclsr3stdE7declvalIRKS7_EEEEES9_, symObjAddr: 0x25DC, symBinAddr: 0x100003E18, symSize: 0x24 }
  - { offset: 0x7D75, size: 0x8, addend: 0x0, symName: __ZNSt3__14sortB8ne180100INS_11__wrap_iterIPNS_5tupleIJiiiEEEEENS_6__lessIvvEEEEvT_S8_T0_, symObjAddr: 0x2D54, symBinAddr: 0x100004590, symSize: 0x40 }
  - { offset: 0x7DCF, size: 0x8, addend: 0x0, symName: __ZNSt3__111__sort_implB8ne180100INS_17_ClassicAlgPolicyENS_11__wrap_iterIPNS_5tupleIJiiiEEEEENS_6__lessIvvEEEEvT0_S9_RT1_, symObjAddr: 0x2D94, symBinAddr: 0x1000045D0, symSize: 0xA8 }
  - { offset: 0x7E32, size: 0x8, addend: 0x0, symName: __ZNSt3__123__debug_randomize_rangeB8ne180100INS_17_ClassicAlgPolicyENS_11__wrap_iterIPNS_5tupleIJiiiEEEEES6_EEvT0_T1_, symObjAddr: 0x2E3C, symBinAddr: 0x100004678, symSize: 0x14 }
  - { offset: 0x7E83, size: 0x8, addend: 0x0, symName: __ZNSt3__115__sort_dispatchB8ne180100INS_17_ClassicAlgPolicyEPNS_5tupleIJiiiEEENS_6__lessIvvEEEEvT0_S7_RT1_, symObjAddr: 0x2E50, symBinAddr: 0x10000468C, symSize: 0x64 }
  - { offset: 0x7F01, size: 0x8, addend: 0x0, symName: __ZNSt3__113__unwrap_iterB8ne180100INS_11__wrap_iterIPNS_5tupleIJiiiEEEEENS_18__unwrap_iter_implIS5_Lb1EEELi0EEEDTclsrT0_8__unwrapclsr3stdE7declvalIT_EEEES9_, symObjAddr: 0x2EB4, symBinAddr: 0x1000046F0, symSize: 0x2C }
  - { offset: 0x7F45, size: 0x8, addend: 0x0, symName: __ZNSt3__135__check_strict_weak_ordering_sortedB8ne180100IPNS_5tupleIJiiiEEENS_6__lessIvvEEEEvT_S6_RT0_, symObjAddr: 0x2EE0, symBinAddr: 0x10000471C, symSize: 0x18 }
  - { offset: 0x7F9B, size: 0x8, addend: 0x0, symName: __ZNSt3__17__log2iB8ne180100IlEET_S1_, symObjAddr: 0x2EF8, symBinAddr: 0x100004734, symSize: 0x54 }
  - { offset: 0x7FD2, size: 0x8, addend: 0x0, symName: __ZNSt3__112__libcpp_clzB8ne180100Em, symObjAddr: 0x33D4, symBinAddr: 0x100004C10, symSize: 0x1C }
  - { offset: 0x80F9, size: 0x8, addend: 0x0, symName: __ZNSt3__124__sort3_maybe_branchlessB8ne180100INS_17_ClassicAlgPolicyERNS_6__lessIvvEEPNS_5tupleIJiiiEEELi0EEEvT1_S8_S8_T0_, symObjAddr: 0x3458, symBinAddr: 0x100004C94, symSize: 0x3C }
  - { offset: 0x816C, size: 0x8, addend: 0x0, symName: __ZNSt3__124__sort4_maybe_branchlessB8ne180100INS_17_ClassicAlgPolicyERNS_6__lessIvvEEPNS_5tupleIJiiiEEELi0EEEvT1_S8_S8_S8_T0_, symObjAddr: 0x3494, symBinAddr: 0x100004CD0, symSize: 0x44 }
  - { offset: 0x81ED, size: 0x8, addend: 0x0, symName: __ZNSt3__124__sort5_maybe_branchlessB8ne180100INS_17_ClassicAlgPolicyERNS_6__lessIvvEEPNS_5tupleIJiiiEEELi0EEEvT1_S8_S8_S8_S8_T0_, symObjAddr: 0x34D8, symBinAddr: 0x100004D14, symSize: 0x4C }
  - { offset: 0x8283, size: 0x8, addend: 0x0, symName: __ZNSt3__116__insertion_sortB8ne180100INS_17_ClassicAlgPolicyERNS_6__lessIvvEEPNS_5tupleIJiiiEEEEEvT1_S8_T0_, symObjAddr: 0x3524, symBinAddr: 0x100004D60, symSize: 0x158 }
  - { offset: 0x834A, size: 0x8, addend: 0x0, symName: __ZNSt3__114__partial_sortB8ne180100INS_17_ClassicAlgPolicyERNS_6__lessIvvEEPNS_5tupleIJiiiEEES7_EET1_S8_S8_T2_RT0_, symObjAddr: 0x37A4, symBinAddr: 0x100004FE0, symSize: 0x94 }
  - { offset: 0x83D2, size: 0x8, addend: 0x0, symName: __ZNSt3__17__sort3B8ne180100INS_17_ClassicAlgPolicyERNS_6__lessIvvEEPNS_5tupleIJiiiEEEEEjT1_S8_S8_T0_, symObjAddr: 0x3838, symBinAddr: 0x100005074, symSize: 0x144 }
  - { offset: 0x8451, size: 0x8, addend: 0x0, symName: __ZNSt3__1ltB8ne180100IJiiiEJiiiEEEbRKNS_5tupleIJDpT_EEERKNS1_IJDpT0_EEE, symObjAddr: 0x4450, symBinAddr: 0x100005C8C, symSize: 0x34 }
  - { offset: 0x84FF, size: 0x8, addend: 0x0, symName: __ZNSt3__13getB8ne180100ILm0EJiiiEEERKNS_13tuple_elementIXT_ENS_5tupleIJDpT0_EEEE4typeERKS5_, symObjAddr: 0x455C, symBinAddr: 0x100005D98, symSize: 0x24 }
  - { offset: 0x8593, size: 0x8, addend: 0x0, symName: __ZNSt3__13getB8ne180100ILm1EJiiiEEERKNS_13tuple_elementIXT_ENS_5tupleIJDpT0_EEEE4typeERKS5_, symObjAddr: 0x4670, symBinAddr: 0x100005EAC, symSize: 0x28 }
  - { offset: 0x8627, size: 0x8, addend: 0x0, symName: __ZNSt3__13getB8ne180100ILm2EJiiiEEERKNS_13tuple_elementIXT_ENS_5tupleIJDpT0_EEEE4typeERKS5_, symObjAddr: 0x4788, symBinAddr: 0x100005FC4, symSize: 0x28 }
  - { offset: 0x86BB, size: 0x8, addend: 0x0, symName: __ZNSt3__19iter_swapB8ne180100IPNS_5tupleIJiiiEEES3_EEvT_T0_, symObjAddr: 0x47E4, symBinAddr: 0x100006020, symSize: 0x2C }
  - { offset: 0x8703, size: 0x8, addend: 0x0, symName: __ZNSt3__14swapB8ne180100IJiiiELi0EEEvRNS_5tupleIJDpT_EEES5_, symObjAddr: 0x4810, symBinAddr: 0x10000604C, symSize: 0x2C }
  - { offset: 0x8757, size: 0x8, addend: 0x0, symName: __ZNSt3__19__swallowB8ne180100IJiiiEEEvDpOT_, symObjAddr: 0x48F0, symBinAddr: 0x10000612C, symSize: 0x18 }
  - { offset: 0x87A8, size: 0x8, addend: 0x0, symName: __ZNSt3__14swapB8ne180100ILm0EiLb0EEEvRNS_12__tuple_leafIXT_ET0_XT1_EEES4_, symObjAddr: 0x4998, symBinAddr: 0x1000061D4, symSize: 0x40 }
  - { offset: 0x87FE, size: 0x8, addend: 0x0, symName: __ZNSt3__14swapB8ne180100IiEENS_9enable_ifIXaasr21is_move_constructibleIT_EE5valuesr18is_move_assignableIS2_EE5valueEvE4typeERS2_S5_, symObjAddr: 0x49D8, symBinAddr: 0x100006214, symSize: 0x3C }
  - { offset: 0x884F, size: 0x8, addend: 0x0, symName: __ZNSt3__14swapB8ne180100ILm1EiLb0EEEvRNS_12__tuple_leafIXT_ET0_XT1_EEES4_, symObjAddr: 0x4A28, symBinAddr: 0x100006264, symSize: 0x40 }
  - { offset: 0x88A5, size: 0x8, addend: 0x0, symName: __ZNSt3__14swapB8ne180100ILm2EiLb0EEEvRNS_12__tuple_leafIXT_ET0_XT1_EEES4_, symObjAddr: 0x4A7C, symBinAddr: 0x1000062B8, symSize: 0x40 }
  - { offset: 0x88FB, size: 0x8, addend: 0x0, symName: __ZNSt3__17__sort4B8ne180100INS_17_ClassicAlgPolicyERNS_6__lessIvvEEPNS_5tupleIJiiiEEEEEvT1_S8_S8_S8_T0_, symObjAddr: 0x4AD0, symBinAddr: 0x10000630C, symSize: 0xB8 }
  - { offset: 0x8976, size: 0x8, addend: 0x0, symName: __ZNSt3__17__sort5B8ne180100INS_17_ClassicAlgPolicyERNS_6__lessIvvEEPNS_5tupleIJiiiEEEEEvT1_S8_S8_S8_S8_T0_, symObjAddr: 0x4B88, symBinAddr: 0x1000063C4, symSize: 0xE8 }
  - { offset: 0x8A0A, size: 0x8, addend: 0x0, symName: __ZNSt3__127__memberwise_forward_assignB8ne180100INS_5tupleIJiiiEEES2_JiiiEJLm0ELm1ELm2EEEEvRT_OT0_NS_13__tuple_typesIJDpT1_EEENS_15__tuple_indicesIJXspT2_EEEE, symObjAddr: 0x4CD8, symBinAddr: 0x100006514, symSize: 0xB0 }
  - { offset: 0x8A98, size: 0x8, addend: 0x0, symName: __ZNSt3__13getB8ne180100ILm0EJiiiEEERNS_13tuple_elementIXT_ENS_5tupleIJDpT0_EEEE4typeERS5_, symObjAddr: 0x4D88, symBinAddr: 0x1000065C4, symSize: 0x24 }
  - { offset: 0x8AE5, size: 0x8, addend: 0x0, symName: __ZNSt3__13getB8ne180100ILm1EJiiiEEERNS_13tuple_elementIXT_ENS_5tupleIJDpT0_EEEE4typeERS5_, symObjAddr: 0x4DAC, symBinAddr: 0x1000065E8, symSize: 0x28 }
  - { offset: 0x8B32, size: 0x8, addend: 0x0, symName: __ZNSt3__13getB8ne180100ILm2EJiiiEEERNS_13tuple_elementIXT_ENS_5tupleIJDpT0_EEEE4typeERS5_, symObjAddr: 0x4DD4, symBinAddr: 0x100006610, symSize: 0x28 }
  - { offset: 0x8B7F, size: 0x8, addend: 0x0, symName: __ZNSt3__123__debug_randomize_rangeB8ne180100INS_17_ClassicAlgPolicyEPNS_5tupleIJiiiEEES4_EEvT0_T1_, symObjAddr: 0x4E14, symBinAddr: 0x100006650, symSize: 0x14 }
  - { offset: 0x8BD0, size: 0x8, addend: 0x0, symName: __ZNSt3__119__partial_sort_implB8ne180100INS_17_ClassicAlgPolicyERNS_6__lessIvvEEPNS_5tupleIJiiiEEES7_EET1_S8_S8_T2_OT0_, symObjAddr: 0x4E28, symBinAddr: 0x100006664, symSize: 0x110 }
  - { offset: 0x8C66, size: 0x8, addend: 0x0, symName: __ZNSt3__111__make_heapB8ne180100INS_17_ClassicAlgPolicyERNS_6__lessIvvEEPNS_5tupleIJiiiEEEEEvT1_S8_OT0_, symObjAddr: 0x4F38, symBinAddr: 0x100006774, symSize: 0xC0 }
  - { offset: 0x8D08, size: 0x8, addend: 0x0, symName: __ZNSt3__111__sort_heapB8ne180100INS_17_ClassicAlgPolicyERNS_6__lessIvvEEPNS_5tupleIJiiiEEEEEvT1_S8_OT0_, symObjAddr: 0x521C, symBinAddr: 0x100006A58, symSize: 0xA8 }
  - { offset: 0x8DAA, size: 0x8, addend: 0x0, symName: __ZNSt3__110__pop_heapB8ne180100INS_17_ClassicAlgPolicyENS_6__lessIvvEEPNS_5tupleIJiiiEEEEEvT1_S7_RT0_NS_15iterator_traitsIS7_E15difference_typeE, symObjAddr: 0x52C4, symBinAddr: 0x100006B00, symSize: 0xFC }
  - { offset: 0x8E5A, size: 0x8, addend: 0x0, symName: __ZNSt3__19__sift_upB8ne180100INS_17_ClassicAlgPolicyERNS_6__lessIvvEEPNS_5tupleIJiiiEEEEEvT1_S8_OT0_NS_15iterator_traitsIS8_E15difference_typeE, symObjAddr: 0x54C8, symBinAddr: 0x100006D04, symSize: 0x134 }
  - { offset: 0x8F0A, size: 0x8, addend: 0x0, symName: __ZNSt3__122__populate_left_bitsetB8ne180100IRNS_6__lessIvvEEPNS_5tupleIJiiiEEES5_EEvT0_T_RT1_Ry, symObjAddr: 0x55FC, symBinAddr: 0x100006E38, symSize: 0xA8 }
  - { offset: 0x8FC5, size: 0x8, addend: 0x0, symName: __ZNSt3__123__populate_right_bitsetB8ne180100IRNS_6__lessIvvEEPNS_5tupleIJiiiEEES5_EEvT0_T_RT1_Ry, symObjAddr: 0x56A4, symBinAddr: 0x100006EE0, symSize: 0xA4 }
  - { offset: 0x9080, size: 0x8, addend: 0x0, symName: __ZNSt3__117__swap_bitmap_posB8ne180100INS_17_ClassicAlgPolicyEPNS_5tupleIJiiiEEEEEvT0_S5_RyS6_, symObjAddr: 0x5748, symBinAddr: 0x100006F84, symSize: 0x104 }
  - { offset: 0x9121, size: 0x8, addend: 0x0, symName: __ZNSt3__133__bitset_partition_partial_blocksB8ne180100INS_17_ClassicAlgPolicyERNS_6__lessIvvEEPNS_5tupleIJiiiEEES6_EEvRT1_S9_T0_RT2_RySD_, symObjAddr: 0x584C, symBinAddr: 0x100007088, symSize: 0x2F0 }
  - { offset: 0x92A2, size: 0x8, addend: 0x0, symName: __ZNSt3__19make_pairB8ne180100IRPNS_5tupleIJiiiEEERbEENS_4pairINS_18__unwrap_ref_decayIT_E4typeENS7_IT0_E4typeEEEOS8_OSB_, symObjAddr: 0x5D24, symBinAddr: 0x100007560, symSize: 0x38 }
  - { offset: 0x92F1, size: 0x8, addend: 0x0, symName: __ZNSt3__112__libcpp_ctzB8ne180100Ey, symObjAddr: 0x5D5C, symBinAddr: 0x100007598, symSize: 0x20 }
  - { offset: 0x931D, size: 0x8, addend: 0x0, symName: __ZNSt3__113__libcpp_blsrB8ne180100Ey, symObjAddr: 0x5D7C, symBinAddr: 0x1000075B8, symSize: 0x2C }
  - { offset: 0x9349, size: 0x8, addend: 0x0, symName: __ZNSt3__112__libcpp_clzB8ne180100Ey, symObjAddr: 0x5DDC, symBinAddr: 0x100007618, symSize: 0x1C }
  - { offset: 0x949C, size: 0x8, addend: 0x0, symName: __ZNSt3__112__to_addressB8ne180100INS_11__wrap_iterIPNS_5tupleIJiiiEEEEEvEEu7__decayIDTclsr19__to_address_helperIT_EE6__callclsr3stdE7declvalIRKS6_EEEEES8_, symObjAddr: 0x5E94, symBinAddr: 0x1000076D0, symSize: 0x24 }
  - { offset: 0x9577, size: 0x8, addend: 0x0, symName: __ZNSt3__124__memberwise_copy_assignB8ne180100INS_5tupleIJRiS2_S2_EEENS1_IJiiiEEEJLm0ELm1ELm2EEEEvRT_RKT0_NS_15__tuple_indicesIJXspT1_EEEE, symObjAddr: 0x5F14, symBinAddr: 0x100007750, symSize: 0xB0 }
  - { offset: 0x95E5, size: 0x8, addend: 0x0, symName: __ZNSt3__13getB8ne180100ILm0EJRiS1_S1_EEERNS_13tuple_elementIXT_ENS_5tupleIJDpT0_EEEE4typeERS6_, symObjAddr: 0x5FC4, symBinAddr: 0x100007800, symSize: 0x24 }
  - { offset: 0x9631, size: 0x8, addend: 0x0, symName: __ZNSt3__13getB8ne180100ILm1EJRiS1_S1_EEERNS_13tuple_elementIXT_ENS_5tupleIJDpT0_EEEE4typeERS6_, symObjAddr: 0x5FE8, symBinAddr: 0x100007824, symSize: 0x28 }
  - { offset: 0x967D, size: 0x8, addend: 0x0, symName: __ZNSt3__13getB8ne180100ILm2EJRiS1_S1_EEERNS_13tuple_elementIXT_ENS_5tupleIJDpT0_EEEE4typeERS6_, symObjAddr: 0x6010, symBinAddr: 0x10000784C, symSize: 0x28 }
  - { offset: 0x96C9, size: 0x8, addend: 0x0, symName: __ZNSt3__19use_facetB8ne180100INS_5ctypeIcEEEERKT_RKNS_6localeE, symObjAddr: 0x6104, symBinAddr: 0x100007940, symSize: 0x2C }
  - { offset: 0xA9D2, size: 0x8, addend: 0x0, symName: __ZSt28__throw_bad_array_new_lengthB8ne180100v, symObjAddr: 0x1DD4, symBinAddr: 0x100003610, symSize: 0x34 }
  - { offset: 0xAF22, size: 0x8, addend: 0x0, symName: __ZNSt3__16vectorINS_5tupleIJiiiEEENS_9allocatorIS2_EEE26__swap_out_circular_bufferERNS_14__split_bufferIS2_RS4_EE, symObjAddr: 0x16E4, symBinAddr: 0x100002F20, symSize: 0x110 }
  - { offset: 0xAFD4, size: 0x8, addend: 0x0, symName: _main, symObjAddr: 0x0, symBinAddr: 0x10000183C, symSize: 0x418 }
  - { offset: 0xB297, size: 0x8, addend: 0x0, symName: __ZNSt3__19basic_iosIcNS_11char_traitsIcEEE3tieB8ne180100EPNS_13basic_ostreamIcS2_EE, symObjAddr: 0x418, symBinAddr: 0x100001C54, symSize: 0x2C }
  - { offset: 0xB2DC, size: 0x8, addend: 0x0, symName: __ZNSt3__16vectorINS_5tupleIJiiiEEENS_9allocatorIS2_EEEC1B8ne180100Ev, symObjAddr: 0x444, symBinAddr: 0x100001C80, symSize: 0x2C }
  - { offset: 0xB309, size: 0x8, addend: 0x0, symName: __ZNSt3__16vectorINS_5tupleIJiiiEEENS_9allocatorIS2_EEE12emplace_backIJRiS7_iEEERS2_DpOT_, symObjAddr: 0x470, symBinAddr: 0x100001CAC, symSize: 0xB0 }
  - { offset: 0xB380, size: 0x8, addend: 0x0, symName: __ZNSt3__16vectorINS_5tupleIJiiiEEENS_9allocatorIS2_EEE12emplace_backIJiiiEEERS2_DpOT_, symObjAddr: 0x520, symBinAddr: 0x100001D5C, symSize: 0xB0 }
  - { offset: 0xB3F7, size: 0x8, addend: 0x0, symName: __ZNSt3__16vectorINS_5tupleIJiiiEEENS_9allocatorIS2_EEE5beginB8ne180100Ev, symObjAddr: 0x60C, symBinAddr: 0x100001E48, symSize: 0x30 }
  - { offset: 0xB41D, size: 0x8, addend: 0x0, symName: __ZNSt3__16vectorINS_5tupleIJiiiEEENS_9allocatorIS2_EEE3endB8ne180100Ev, symObjAddr: 0x63C, symBinAddr: 0x100001E78, symSize: 0x30 }
  - { offset: 0xB444, size: 0x8, addend: 0x0, symName: __ZNKSt3__111__wrap_iterIPNS_5tupleIJiiiEEEEdeB8ne180100Ev, symObjAddr: 0x6A0, symBinAddr: 0x100001EDC, symSize: 0x18 }
  - { offset: 0xB4FA, size: 0x8, addend: 0x0, symName: __ZNSt3__15tupleIJRiS1_S1_EEaSB8ne180100IJiiiELi0EEERS2_RKNS0_IJDpT_EEE, symObjAddr: 0x6F8, symBinAddr: 0x100001F34, symSize: 0x3C }
  - { offset: 0xB549, size: 0x8, addend: 0x0, symName: __ZNSt3__111__wrap_iterIPNS_5tupleIJiiiEEEEppB8ne180100Ev, symObjAddr: 0x760, symBinAddr: 0x100001F9C, symSize: 0x20 }
  - { offset: 0xB56E, size: 0x8, addend: 0x0, symName: __ZNSt3__113basic_ostreamIcNS_11char_traitsIcEEElsB8ne180100EPFRS3_S4_E, symObjAddr: 0x780, symBinAddr: 0x100001FBC, symSize: 0x2C }
  - { offset: 0xB5A1, size: 0x8, addend: 0x0, symName: __ZNSt3__16vectorINS_5tupleIJiiiEEENS_9allocatorIS2_EEED1B8ne180100Ev, symObjAddr: 0x804, symBinAddr: 0x100002040, symSize: 0x2C }
  - { offset: 0xB5CA, size: 0x8, addend: 0x0, symName: __ZNKSt3__111__wrap_iterIPNS_5tupleIJiiiEEEE4baseB8ne180100Ev, symObjAddr: 0x878, symBinAddr: 0x1000020B4, symSize: 0x18 }
  - { offset: 0xB5EF, size: 0x8, addend: 0x0, symName: __ZNSt3__15tupleIJRiS1_S1_EEC1B8ne180100INS_4_AndELi0EEES1_S1_S1_, symObjAddr: 0x890, symBinAddr: 0x1000020CC, symSize: 0x44 }
  - { offset: 0xB654, size: 0x8, addend: 0x0, symName: __ZNSt3__15tupleIJRiS1_S1_EEC2B8ne180100INS_4_AndELi0EEES1_S1_S1_, symObjAddr: 0x8D4, symBinAddr: 0x100002110, symSize: 0x44 }
  - { offset: 0xB6B9, size: 0x8, addend: 0x0, symName: __ZNSt3__112__tuple_implINS_15__tuple_indicesIJLm0ELm1ELm2EEEEJRiS3_S3_EEC1B8ne180100IJLm0ELm1ELm2EEJS3_S3_S3_EJEJEJS3_S3_S3_EEENS1_IJXspT_EEEENS_13__tuple_typesIJDpT0_EEENS1_IJXspT1_EEEENS7_IJDpT2_EEEDpOT3_, symObjAddr: 0x918, symBinAddr: 0x100002154, symSize: 0x44 }
  - { offset: 0xB787, size: 0x8, addend: 0x0, symName: __ZNSt3__112__tuple_implINS_15__tuple_indicesIJLm0ELm1ELm2EEEEJRiS3_S3_EEC2B8ne180100IJLm0ELm1ELm2EEJS3_S3_S3_EJEJEJS3_S3_S3_EEENS1_IJXspT_EEEENS_13__tuple_typesIJDpT0_EEENS1_IJXspT1_EEEENS7_IJDpT2_EEEDpOT3_, symObjAddr: 0x95C, symBinAddr: 0x100002198, symSize: 0x5C }
  - { offset: 0xB855, size: 0x8, addend: 0x0, symName: __ZNSt3__112__tuple_leafILm0ERiLb0EEC2B8ne180100IS1_vEEOT_, symObjAddr: 0x9B8, symBinAddr: 0x1000021F4, symSize: 0x20 }
  - { offset: 0xB897, size: 0x8, addend: 0x0, symName: __ZNSt3__112__tuple_leafILm1ERiLb0EEC2B8ne180100IS1_vEEOT_, symObjAddr: 0x9D8, symBinAddr: 0x100002214, symSize: 0x20 }
  - { offset: 0xB8D9, size: 0x8, addend: 0x0, symName: __ZNSt3__112__tuple_leafILm2ERiLb0EEC2B8ne180100IS1_vEEOT_, symObjAddr: 0x9F8, symBinAddr: 0x100002234, symSize: 0x20 }
  - { offset: 0xB925, size: 0x8, addend: 0x0, symName: __ZNKSt3__16__lessIvvEclB8ne180100IiiEEbRKT_RKT0_, symObjAddr: 0xA6C, symBinAddr: 0x1000022A8, symSize: 0x34 }
  - { offset: 0xB978, size: 0x8, addend: 0x0, symName: __ZNSt3__16vectorINS_5tupleIJiiiEEENS_9allocatorIS2_EEEC2B8ne180100Ev, symObjAddr: 0xAA0, symBinAddr: 0x1000022DC, symSize: 0x4C }
  - { offset: 0xB9AB, size: 0x8, addend: 0x0, symName: __ZNSt3__117__compressed_pairIPNS_5tupleIJiiiEEENS_9allocatorIS2_EEEC1B8ne180100IDnNS_18__default_init_tagEEEOT_OT0_, symObjAddr: 0xAEC, symBinAddr: 0x100002328, symSize: 0x3C }
  - { offset: 0xBA02, size: 0x8, addend: 0x0, symName: __ZNSt3__117__compressed_pairIPNS_5tupleIJiiiEEENS_9allocatorIS2_EEEC2B8ne180100IDnNS_18__default_init_tagEEEOT_OT0_, symObjAddr: 0xB38, symBinAddr: 0x100002374, symSize: 0x40 }
  - { offset: 0xBA59, size: 0x8, addend: 0x0, symName: __ZNSt3__122__compressed_pair_elemIPNS_5tupleIJiiiEEELi0ELb0EEC2B8ne180100IDnvEEOT_, symObjAddr: 0xB78, symBinAddr: 0x1000023B4, symSize: 0x1C }
  - { offset: 0xBA9A, size: 0x8, addend: 0x0, symName: __ZNSt3__122__compressed_pair_elemINS_9allocatorINS_5tupleIJiiiEEEEELi1ELb1EEC2B8ne180100ENS_18__default_init_tagE, symObjAddr: 0xB94, symBinAddr: 0x1000023D0, symSize: 0x2C }
  - { offset: 0xBACE, size: 0x8, addend: 0x0, symName: __ZNSt3__19allocatorINS_5tupleIJiiiEEEEC2B8ne180100Ev, symObjAddr: 0xBC0, symBinAddr: 0x1000023FC, symSize: 0x2C }
  - { offset: 0xBAF7, size: 0x8, addend: 0x0, symName: __ZNSt3__116__non_trivial_ifILb1ENS_9allocatorINS_5tupleIJiiiEEEEEEC2B8ne180100Ev, symObjAddr: 0xBEC, symBinAddr: 0x100002428, symSize: 0x14 }
  - { offset: 0xBB20, size: 0x8, addend: 0x0, symName: __ZNSt3__16vectorINS_5tupleIJiiiEEENS_9allocatorIS2_EEED2B8ne180100Ev, symObjAddr: 0xC00, symBinAddr: 0x10000243C, symSize: 0x44 }
  - { offset: 0xBB49, size: 0x8, addend: 0x0, symName: __ZNSt3__16vectorINS_5tupleIJiiiEEENS_9allocatorIS2_EEE16__destroy_vectorC1B8ne180100ERS5_, symObjAddr: 0xC44, symBinAddr: 0x100002480, symSize: 0x34 }
  - { offset: 0xBB81, size: 0x8, addend: 0x0, symName: __ZNSt3__16vectorINS_5tupleIJiiiEEENS_9allocatorIS2_EEE16__destroy_vectorclB8ne180100Ev, symObjAddr: 0xC78, symBinAddr: 0x1000024B4, symSize: 0x90 }
  - { offset: 0xBBA6, size: 0x8, addend: 0x0, symName: __ZNSt3__16vectorINS_5tupleIJiiiEEENS_9allocatorIS2_EEE16__destroy_vectorC2B8ne180100ERS5_, symObjAddr: 0xD08, symBinAddr: 0x100002544, symSize: 0x20 }
  - { offset: 0xBBDE, size: 0x8, addend: 0x0, symName: __ZNSt3__16vectorINS_5tupleIJiiiEEENS_9allocatorIS2_EEE7__clearB8ne180100Ev, symObjAddr: 0xD28, symBinAddr: 0x100002564, symSize: 0x28 }
  - { offset: 0xBC03, size: 0x8, addend: 0x0, symName: __ZNKSt3__16vectorINS_5tupleIJiiiEEENS_9allocatorIS2_EEE17__annotate_deleteB8ne180100Ev, symObjAddr: 0xD50, symBinAddr: 0x10000258C, symSize: 0x10 }
  - { offset: 0xBC28, size: 0x8, addend: 0x0, symName: __ZNSt3__116allocator_traitsINS_9allocatorINS_5tupleIJiiiEEEEEE10deallocateB8ne180100ERS4_PS3_m, symObjAddr: 0xD60, symBinAddr: 0x10000259C, symSize: 0x34 }
  - { offset: 0xBC6A, size: 0x8, addend: 0x0, symName: __ZNSt3__16vectorINS_5tupleIJiiiEEENS_9allocatorIS2_EEE7__allocB8ne180100Ev, symObjAddr: 0xD94, symBinAddr: 0x1000025D0, symSize: 0x28 }
  - { offset: 0xBC8F, size: 0x8, addend: 0x0, symName: __ZNKSt3__16vectorINS_5tupleIJiiiEEENS_9allocatorIS2_EEE8capacityB8ne180100Ev, symObjAddr: 0xDBC, symBinAddr: 0x1000025F8, symSize: 0x40 }
  - { offset: 0xBCB4, size: 0x8, addend: 0x0, symName: __ZNSt3__16vectorINS_5tupleIJiiiEEENS_9allocatorIS2_EEE22__base_destruct_at_endB8ne180100EPS2_, symObjAddr: 0xDFC, symBinAddr: 0x100002638, symSize: 0x8C }
  - { offset: 0xBCF7, size: 0x8, addend: 0x0, symName: __ZNSt3__116allocator_traitsINS_9allocatorINS_5tupleIJiiiEEEEEE7destroyB8ne180100IS3_vEEvRS4_PT_, symObjAddr: 0xE88, symBinAddr: 0x1000026C4, symSize: 0x2C }
  - { offset: 0xBD34, size: 0x8, addend: 0x0, symName: __ZNSt3__19allocatorINS_5tupleIJiiiEEEE7destroyB8ne180100EPS2_, symObjAddr: 0xEC8, symBinAddr: 0x100002704, symSize: 0x14 }
  - { offset: 0xBD67, size: 0x8, addend: 0x0, symName: __ZNSt3__19allocatorINS_5tupleIJiiiEEEE10deallocateB8ne180100EPS2_m, symObjAddr: 0xEDC, symBinAddr: 0x100002718, symSize: 0x44 }
  - { offset: 0xBDA8, size: 0x8, addend: 0x0, symName: __ZNSt3__117__compressed_pairIPNS_5tupleIJiiiEEENS_9allocatorIS2_EEE6secondB8ne180100Ev, symObjAddr: 0x1048, symBinAddr: 0x100002884, symSize: 0x24 }
  - { offset: 0xBDCD, size: 0x8, addend: 0x0, symName: __ZNSt3__122__compressed_pair_elemINS_9allocatorINS_5tupleIJiiiEEEEELi1ELb1EE5__getB8ne180100Ev, symObjAddr: 0x106C, symBinAddr: 0x1000028A8, symSize: 0x14 }
  - { offset: 0xBDF2, size: 0x8, addend: 0x0, symName: __ZNKSt3__16vectorINS_5tupleIJiiiEEENS_9allocatorIS2_EEE9__end_capB8ne180100Ev, symObjAddr: 0x1080, symBinAddr: 0x1000028BC, symSize: 0x28 }
  - { offset: 0xBE17, size: 0x8, addend: 0x0, symName: __ZNKSt3__117__compressed_pairIPNS_5tupleIJiiiEEENS_9allocatorIS2_EEE5firstB8ne180100Ev, symObjAddr: 0x10A8, symBinAddr: 0x1000028E4, symSize: 0x24 }
  - { offset: 0xBE3C, size: 0x8, addend: 0x0, symName: __ZNKSt3__122__compressed_pair_elemIPNS_5tupleIJiiiEEELi0ELb0EE5__getB8ne180100Ev, symObjAddr: 0x10CC, symBinAddr: 0x100002908, symSize: 0x14 }
  - { offset: 0xBE61, size: 0x8, addend: 0x0, symName: __ZNSt3__16vectorINS_5tupleIJiiiEEENS_9allocatorIS2_EEE9__end_capB8ne180100Ev, symObjAddr: 0x10E0, symBinAddr: 0x10000291C, symSize: 0x28 }
  - { offset: 0xBE86, size: 0x8, addend: 0x0, symName: __ZNSt3__16vectorINS_5tupleIJiiiEEENS_9allocatorIS2_EEE22__construct_one_at_endB8ne180100IJRiS7_iEEEvDpOT_, symObjAddr: 0x1108, symBinAddr: 0x100002944, symSize: 0xA0 }
  - { offset: 0xBEFB, size: 0x8, addend: 0x0, symName: __ZNSt3__16vectorINS_5tupleIJiiiEEENS_9allocatorIS2_EEE24__emplace_back_slow_pathIJRiS7_iEEEPS2_DpOT_, symObjAddr: 0x11A8, symBinAddr: 0x1000029E4, symSize: 0xF8 }
  - { offset: 0xBF82, size: 0x8, addend: 0x0, symName: __ZNSt3__117__compressed_pairIPNS_5tupleIJiiiEEENS_9allocatorIS2_EEE5firstB8ne180100Ev, symObjAddr: 0x12A0, symBinAddr: 0x100002ADC, symSize: 0x24 }
  - { offset: 0xBFA7, size: 0x8, addend: 0x0, symName: __ZNSt3__122__compressed_pair_elemIPNS_5tupleIJiiiEEELi0ELb0EE5__getB8ne180100Ev, symObjAddr: 0x12C4, symBinAddr: 0x100002B00, symSize: 0x14 }
  - { offset: 0xBFE5, size: 0x8, addend: 0x0, symName: __ZNSt3__16vectorINS_5tupleIJiiiEEENS_9allocatorIS2_EEE21_ConstructTransactionC1B8ne180100ERS5_m, symObjAddr: 0x12D8, symBinAddr: 0x100002B14, symSize: 0x3C }
  - { offset: 0xC02C, size: 0x8, addend: 0x0, symName: __ZNSt3__116allocator_traitsINS_9allocatorINS_5tupleIJiiiEEEEEE9constructB8ne180100IS3_JRiS7_iEvEEvRS4_PT_DpOT0_, symObjAddr: 0x1314, symBinAddr: 0x100002B50, symSize: 0x44 }
  - { offset: 0xC0AB, size: 0x8, addend: 0x0, symName: __ZNSt3__16vectorINS_5tupleIJiiiEEENS_9allocatorIS2_EEE21_ConstructTransactionD1B8ne180100Ev, symObjAddr: 0x1358, symBinAddr: 0x100002B94, symSize: 0x2C }
  - { offset: 0xC0D4, size: 0x8, addend: 0x0, symName: __ZNSt3__16vectorINS_5tupleIJiiiEEENS_9allocatorIS2_EEE21_ConstructTransactionC2B8ne180100ERS5_m, symObjAddr: 0x1384, symBinAddr: 0x100002BC0, symSize: 0x4C }
  - { offset: 0xC11B, size: 0x8, addend: 0x0, symName: __ZNSt3__19allocatorINS_5tupleIJiiiEEEE9constructB8ne180100IS2_JRiS5_iEEEvPT_DpOT0_, symObjAddr: 0x13D0, symBinAddr: 0x100002C0C, symSize: 0x40 }
  - { offset: 0xC196, size: 0x8, addend: 0x0, symName: __ZNSt3__15tupleIJiiiEEC1B8ne180100IJRiS3_iELi0EEEDpOT_, symObjAddr: 0x1410, symBinAddr: 0x100002C4C, symSize: 0x44 }
  - { offset: 0xC207, size: 0x8, addend: 0x0, symName: __ZNSt3__15tupleIJiiiEEC2B8ne180100IJRiS3_iELi0EEEDpOT_, symObjAddr: 0x1454, symBinAddr: 0x100002C90, symSize: 0x44 }
  - { offset: 0xC278, size: 0x8, addend: 0x0, symName: __ZNSt3__112__tuple_implINS_15__tuple_indicesIJLm0ELm1ELm2EEEEJiiiEEC1B8ne180100IJLm0ELm1ELm2EEJiiiEJEJEJRiS5_iEEENS1_IJXspT_EEEENS_13__tuple_typesIJDpT0_EEENS1_IJXspT1_EEEENS7_IJDpT2_EEEDpOT3_, symObjAddr: 0x1498, symBinAddr: 0x100002CD4, symSize: 0x44 }
  - { offset: 0xC346, size: 0x8, addend: 0x0, symName: __ZNSt3__112__tuple_implINS_15__tuple_indicesIJLm0ELm1ELm2EEEEJiiiEEC2B8ne180100IJLm0ELm1ELm2EEJiiiEJEJEJRiS5_iEEENS1_IJXspT_EEEENS_13__tuple_typesIJDpT0_EEENS1_IJXspT1_EEEENS7_IJDpT2_EEEDpOT3_, symObjAddr: 0x14DC, symBinAddr: 0x100002D18, symSize: 0x5C }
  - { offset: 0xC414, size: 0x8, addend: 0x0, symName: __ZNSt3__112__tuple_leafILm0EiLb0EEC2B8ne180100IRivEEOT_, symObjAddr: 0x1538, symBinAddr: 0x100002D74, symSize: 0x24 }
  - { offset: 0xC456, size: 0x8, addend: 0x0, symName: __ZNSt3__112__tuple_leafILm1EiLb0EEC2B8ne180100IRivEEOT_, symObjAddr: 0x155C, symBinAddr: 0x100002D98, symSize: 0x24 }
  - { offset: 0xC498, size: 0x8, addend: 0x0, symName: __ZNSt3__112__tuple_leafILm2EiLb0EEC2B8ne180100IivEEOT_, symObjAddr: 0x1580, symBinAddr: 0x100002DBC, symSize: 0x24 }
  - { offset: 0xC4DA, size: 0x8, addend: 0x0, symName: __ZNSt3__16vectorINS_5tupleIJiiiEEENS_9allocatorIS2_EEE21_ConstructTransactionD2B8ne180100Ev, symObjAddr: 0x15A4, symBinAddr: 0x100002DE0, symSize: 0x20 }
  - { offset: 0xC502, size: 0x8, addend: 0x0, symName: __ZNKSt3__16vectorINS_5tupleIJiiiEEENS_9allocatorIS2_EEE11__recommendB8ne180100Em, symObjAddr: 0x15C4, symBinAddr: 0x100002E00, symSize: 0xB4 }
  - { offset: 0xC556, size: 0x8, addend: 0x0, symName: __ZNKSt3__16vectorINS_5tupleIJiiiEEENS_9allocatorIS2_EEE4sizeB8ne180100Ev, symObjAddr: 0x1678, symBinAddr: 0x100002EB4, symSize: 0x28 }
  - { offset: 0xC57B, size: 0x8, addend: 0x0, symName: __ZNSt3__114__split_bufferINS_5tupleIJiiiEEERNS_9allocatorIS2_EEEC1EmmS5_, symObjAddr: 0x16A0, symBinAddr: 0x100002EDC, symSize: 0x44 }
  - { offset: 0xC5D0, size: 0x8, addend: 0x0, symName: __ZNSt3__114__split_bufferINS_5tupleIJiiiEEERNS_9allocatorIS2_EEED1Ev, symObjAddr: 0x17F4, symBinAddr: 0x100003030, symSize: 0x2C }
  - { offset: 0xC5FA, size: 0x8, addend: 0x0, symName: __ZNKSt3__16vectorINS_5tupleIJiiiEEENS_9allocatorIS2_EEE8max_sizeEv, symObjAddr: 0x1820, symBinAddr: 0x10000305C, symSize: 0x60 }
  - { offset: 0xC621, size: 0x8, addend: 0x0, symName: __ZNKSt3__16vectorINS_5tupleIJiiiEEENS_9allocatorIS2_EEE20__throw_length_errorB8ne180100Ev, symObjAddr: 0x1880, symBinAddr: 0x1000030BC, symSize: 0x1C }
  - { offset: 0xC650, size: 0x8, addend: 0x0, symName: __ZNSt3__116allocator_traitsINS_9allocatorINS_5tupleIJiiiEEEEEE8max_sizeB8ne180100IS4_vEEmRKS4_, symObjAddr: 0x18F4, symBinAddr: 0x100003130, symSize: 0x24 }
  - { offset: 0xC67E, size: 0x8, addend: 0x0, symName: __ZNKSt3__16vectorINS_5tupleIJiiiEEENS_9allocatorIS2_EEE7__allocB8ne180100Ev, symObjAddr: 0x1918, symBinAddr: 0x100003154, symSize: 0x28 }
  - { offset: 0xC6A3, size: 0x8, addend: 0x0, symName: __ZNSt3__114numeric_limitsIlE3maxB8ne180100Ev, symObjAddr: 0x1940, symBinAddr: 0x10000317C, symSize: 0x14 }
  - { offset: 0xC6C1, size: 0x8, addend: 0x0, symName: __ZNKSt3__16__lessIvvEclB8ne180100ImmEEbRKT_RKT0_, symObjAddr: 0x19A8, symBinAddr: 0x1000031E4, symSize: 0x34 }
  - { offset: 0xC714, size: 0x8, addend: 0x0, symName: __ZNKSt3__19allocatorINS_5tupleIJiiiEEEE8max_sizeB8ne180100Ev, symObjAddr: 0x19DC, symBinAddr: 0x100003218, symSize: 0x18 }
  - { offset: 0xC739, size: 0x8, addend: 0x0, symName: __ZNKSt3__117__compressed_pairIPNS_5tupleIJiiiEEENS_9allocatorIS2_EEE6secondB8ne180100Ev, symObjAddr: 0x19F4, symBinAddr: 0x100003230, symSize: 0x24 }
  - { offset: 0xC75E, size: 0x8, addend: 0x0, symName: __ZNKSt3__122__compressed_pair_elemINS_9allocatorINS_5tupleIJiiiEEEEELi1ELb1EE5__getB8ne180100Ev, symObjAddr: 0x1A18, symBinAddr: 0x100003254, symSize: 0x14 }
  - { offset: 0xC783, size: 0x8, addend: 0x0, symName: __ZNSt3__123__libcpp_numeric_limitsIlLb1EE3maxB8ne180100Ev, symObjAddr: 0x1A2C, symBinAddr: 0x100003268, symSize: 0x8 }
  - { offset: 0xC797, size: 0x8, addend: 0x0, symName: __ZNSt12length_errorC1B8ne180100EPKc, symObjAddr: 0x1A98, symBinAddr: 0x1000032D4, symSize: 0x34 }
  - { offset: 0xC7CE, size: 0x8, addend: 0x0, symName: __ZNSt12length_errorC2B8ne180100EPKc, symObjAddr: 0x1ACC, symBinAddr: 0x100003308, symSize: 0x44 }
  - { offset: 0xC805, size: 0x8, addend: 0x0, symName: __ZNSt3__114__split_bufferINS_5tupleIJiiiEEERNS_9allocatorIS2_EEEC2EmmS5_, symObjAddr: 0x1B64, symBinAddr: 0x1000033A0, symSize: 0xE0 }
  - { offset: 0xC877, size: 0x8, addend: 0x0, symName: __ZNSt3__117__compressed_pairIPNS_5tupleIJiiiEEERNS_9allocatorIS2_EEEC1B8ne180100IDnS6_EEOT_OT0_, symObjAddr: 0x1C44, symBinAddr: 0x100003480, symSize: 0x3C }
  - { offset: 0xC8CE, size: 0x8, addend: 0x0, symName: __ZNSt3__114__split_bufferINS_5tupleIJiiiEEERNS_9allocatorIS2_EEE7__allocB8ne180100Ev, symObjAddr: 0x1CC0, symBinAddr: 0x1000034FC, symSize: 0x28 }
  - { offset: 0xC8F3, size: 0x8, addend: 0x0, symName: __ZNSt3__114__split_bufferINS_5tupleIJiiiEEERNS_9allocatorIS2_EEE9__end_capB8ne180100Ev, symObjAddr: 0x1CE8, symBinAddr: 0x100003524, symSize: 0x28 }
  - { offset: 0xC918, size: 0x8, addend: 0x0, symName: __ZNSt3__117__compressed_pairIPNS_5tupleIJiiiEEERNS_9allocatorIS2_EEEC2B8ne180100IDnS6_EEOT_OT0_, symObjAddr: 0x1D10, symBinAddr: 0x10000354C, symSize: 0x48 }
  - { offset: 0xC96F, size: 0x8, addend: 0x0, symName: __ZNSt3__122__compressed_pair_elemIRNS_9allocatorINS_5tupleIJiiiEEEEELi1ELb0EEC2B8ne180100IS5_vEEOT_, symObjAddr: 0x1D58, symBinAddr: 0x100003594, symSize: 0x20 }
  - { offset: 0xC9B0, size: 0x8, addend: 0x0, symName: __ZNSt3__19allocatorINS_5tupleIJiiiEEEE8allocateB8ne180100Em, symObjAddr: 0x1D78, symBinAddr: 0x1000035B4, symSize: 0x5C }
  - { offset: 0xC9E3, size: 0x8, addend: 0x0, symName: __ZNSt3__117__compressed_pairIPNS_5tupleIJiiiEEERNS_9allocatorIS2_EEE6secondB8ne180100Ev, symObjAddr: 0x1EB8, symBinAddr: 0x1000036F4, symSize: 0x28 }
  - { offset: 0xCA08, size: 0x8, addend: 0x0, symName: __ZNSt3__122__compressed_pair_elemIRNS_9allocatorINS_5tupleIJiiiEEEEELi1ELb0EE5__getB8ne180100Ev, symObjAddr: 0x1EE0, symBinAddr: 0x10000371C, symSize: 0x18 }
  - { offset: 0xCA2D, size: 0x8, addend: 0x0, symName: __ZNSt3__117__compressed_pairIPNS_5tupleIJiiiEEERNS_9allocatorIS2_EEE5firstB8ne180100Ev, symObjAddr: 0x1EF8, symBinAddr: 0x100003734, symSize: 0x24 }
  - { offset: 0xCA52, size: 0x8, addend: 0x0, symName: __ZNSt3__116reverse_iteratorIPNS_5tupleIJiiiEEEEC1B8ne180100ES3_, symObjAddr: 0x2048, symBinAddr: 0x100003884, symSize: 0x34 }
  - { offset: 0xCA89, size: 0x8, addend: 0x0, symName: __ZNKSt3__116reverse_iteratorIPNS_5tupleIJiiiEEEE4baseB8ne180100Ev, symObjAddr: 0x207C, symBinAddr: 0x1000038B8, symSize: 0x18 }
  - { offset: 0xCAAE, size: 0x8, addend: 0x0, symName: __ZNKSt3__16vectorINS_5tupleIJiiiEEENS_9allocatorIS2_EEE14__annotate_newB8ne180100Em, symObjAddr: 0x20D0, symBinAddr: 0x10000390C, symSize: 0x14 }
  - { offset: 0xCAE2, size: 0x8, addend: 0x0, symName: __ZNSt3__129_AllocatorDestroyRangeReverseINS_9allocatorINS_5tupleIJiiiEEEEENS_16reverse_iteratorIPS3_EEEC1B8ne180100ERS4_RS7_SA_, symObjAddr: 0x2130, symBinAddr: 0x10000396C, symSize: 0x44 }
  - { offset: 0xCB38, size: 0x8, addend: 0x0, symName: __ZNSt3__116allocator_traitsINS_9allocatorINS_5tupleIJiiiEEEEEE9constructB8ne180100IS3_JS3_EvEEvRS4_PT_DpOT0_, symObjAddr: 0x21BC, symBinAddr: 0x1000039F8, symSize: 0x34 }
  - { offset: 0xCB8F, size: 0x8, addend: 0x0, symName: __ZNKSt3__116reverse_iteratorIPNS_5tupleIJiiiEEEEdeB8ne180100Ev, symObjAddr: 0x2214, symBinAddr: 0x100003A50, symSize: 0x28 }
  - { offset: 0xCBC2, size: 0x8, addend: 0x0, symName: __ZNSt3__116reverse_iteratorIPNS_5tupleIJiiiEEEEppB8ne180100Ev, symObjAddr: 0x223C, symBinAddr: 0x100003A78, symSize: 0x20 }
  - { offset: 0xCBE7, size: 0x8, addend: 0x0, symName: __ZNSt3__128__exception_guard_exceptionsINS_29_AllocatorDestroyRangeReverseINS_9allocatorINS_5tupleIJiiiEEEEENS_16reverse_iteratorIPS4_EEEEE10__completeB8ne180100Ev, symObjAddr: 0x225C, symBinAddr: 0x100003A98, symSize: 0x1C }
  - { offset: 0xCC0C, size: 0x8, addend: 0x0, symName: __ZNSt3__128__exception_guard_exceptionsINS_29_AllocatorDestroyRangeReverseINS_9allocatorINS_5tupleIJiiiEEEEENS_16reverse_iteratorIPS4_EEEEED1B8ne180100Ev, symObjAddr: 0x2278, symBinAddr: 0x100003AB4, symSize: 0x2C }
  - { offset: 0xCC35, size: 0x8, addend: 0x0, symName: __ZNSt3__128__exception_guard_exceptionsINS_29_AllocatorDestroyRangeReverseINS_9allocatorINS_5tupleIJiiiEEEEENS_16reverse_iteratorIPS4_EEEEEC1B8ne180100ES9_, symObjAddr: 0x22A4, symBinAddr: 0x100003AE0, symSize: 0x34 }
  - { offset: 0xCC6D, size: 0x8, addend: 0x0, symName: __ZNSt3__128__exception_guard_exceptionsINS_29_AllocatorDestroyRangeReverseINS_9allocatorINS_5tupleIJiiiEEEEENS_16reverse_iteratorIPS4_EEEEEC2B8ne180100ES9_, symObjAddr: 0x22D8, symBinAddr: 0x100003B14, symSize: 0x30 }
  - { offset: 0xCCA5, size: 0x8, addend: 0x0, symName: __ZNSt3__129_AllocatorDestroyRangeReverseINS_9allocatorINS_5tupleIJiiiEEEEENS_16reverse_iteratorIPS3_EEEC2B8ne180100ERS4_RS7_SA_, symObjAddr: 0x2308, symBinAddr: 0x100003B44, symSize: 0x38 }
  - { offset: 0xCCFB, size: 0x8, addend: 0x0, symName: __ZNSt3__19allocatorINS_5tupleIJiiiEEEE9constructB8ne180100IS2_JS2_EEEvPT_DpOT0_, symObjAddr: 0x2340, symBinAddr: 0x100003B7C, symSize: 0x30 }
  - { offset: 0xCD55, size: 0x8, addend: 0x0, symName: __ZNSt3__119__to_address_helperINS_16reverse_iteratorIPNS_5tupleIJiiiEEEEEvE6__callB8ne180100ERKS5_, symObjAddr: 0x2370, symBinAddr: 0x100003BAC, symSize: 0x38 }
  - { offset: 0xCD78, size: 0x8, addend: 0x0, symName: __ZNKSt3__116reverse_iteratorIPNS_5tupleIJiiiEEEEptB8ne180100Ev, symObjAddr: 0x23A8, symBinAddr: 0x100003BE4, symSize: 0x24 }
  - { offset: 0xCD9D, size: 0x8, addend: 0x0, symName: __ZNSt3__128__exception_guard_exceptionsINS_29_AllocatorDestroyRangeReverseINS_9allocatorINS_5tupleIJiiiEEEEENS_16reverse_iteratorIPS4_EEEEED2B8ne180100Ev, symObjAddr: 0x23CC, symBinAddr: 0x100003C08, symSize: 0x50 }
  - { offset: 0xCDC6, size: 0x8, addend: 0x0, symName: __ZNKSt3__129_AllocatorDestroyRangeReverseINS_9allocatorINS_5tupleIJiiiEEEEENS_16reverse_iteratorIPS3_EEEclB8ne180100Ev, symObjAddr: 0x241C, symBinAddr: 0x100003C58, symSize: 0xB4 }
  - { offset: 0xCDEC, size: 0x8, addend: 0x0, symName: __ZNSt3__116reverse_iteratorINS0_IPNS_5tupleIJiiiEEEEEEC1B8ne180100ES4_, symObjAddr: 0x2540, symBinAddr: 0x100003D7C, symSize: 0x3C }
  - { offset: 0xCE23, size: 0x8, addend: 0x0, symName: __ZNSt3__116reverse_iteratorINS0_IPNS_5tupleIJiiiEEEEEEppB8ne180100Ev, symObjAddr: 0x2600, symBinAddr: 0x100003E3C, symSize: 0x30 }
  - { offset: 0xCE48, size: 0x8, addend: 0x0, symName: __ZNKSt3__116reverse_iteratorINS0_IPNS_5tupleIJiiiEEEEEE4baseB8ne180100Ev, symObjAddr: 0x2630, symBinAddr: 0x100003E6C, symSize: 0x24 }
  - { offset: 0xCE72, size: 0x8, addend: 0x0, symName: __ZNSt3__119__to_address_helperINS_16reverse_iteratorINS1_IPNS_5tupleIJiiiEEEEEEEvE6__callB8ne180100ERKS6_, symObjAddr: 0x2654, symBinAddr: 0x100003E90, symSize: 0x38 }
  - { offset: 0xCE95, size: 0x8, addend: 0x0, symName: __ZNKSt3__116reverse_iteratorINS0_IPNS_5tupleIJiiiEEEEEEptB8ne180100Ev, symObjAddr: 0x268C, symBinAddr: 0x100003EC8, symSize: 0x24 }
  - { offset: 0xCEBA, size: 0x8, addend: 0x0, symName: __ZNKSt3__116reverse_iteratorINS0_IPNS_5tupleIJiiiEEEEEEdeB8ne180100Ev, symObjAddr: 0x26B0, symBinAddr: 0x100003EEC, symSize: 0x34 }
  - { offset: 0xCEED, size: 0x8, addend: 0x0, symName: __ZNSt3__116reverse_iteratorIPNS_5tupleIJiiiEEEEmmB8ne180100Ev, symObjAddr: 0x26E4, symBinAddr: 0x100003F20, symSize: 0x20 }
  - { offset: 0xCF12, size: 0x8, addend: 0x0, symName: __ZNSt3__116reverse_iteratorINS0_IPNS_5tupleIJiiiEEEEEEC2B8ne180100ES4_, symObjAddr: 0x2704, symBinAddr: 0x100003F40, symSize: 0x2C }
  - { offset: 0xCF49, size: 0x8, addend: 0x0, symName: __ZNSt3__116reverse_iteratorIPNS_5tupleIJiiiEEEEC2B8ne180100ES3_, symObjAddr: 0x2730, symBinAddr: 0x100003F6C, symSize: 0x28 }
  - { offset: 0xCF80, size: 0x8, addend: 0x0, symName: __ZNSt3__114__split_bufferINS_5tupleIJiiiEEERNS_9allocatorIS2_EEED2Ev, symObjAddr: 0x2758, symBinAddr: 0x100003F94, symSize: 0x8C }
  - { offset: 0xCFAB, size: 0x8, addend: 0x0, symName: __ZNSt3__114__split_bufferINS_5tupleIJiiiEEERNS_9allocatorIS2_EEE5clearB8ne180100Ev, symObjAddr: 0x27E4, symBinAddr: 0x100004020, symSize: 0x28 }
  - { offset: 0xCFD0, size: 0x8, addend: 0x0, symName: __ZNKSt3__114__split_bufferINS_5tupleIJiiiEEERNS_9allocatorIS2_EEE8capacityB8ne180100Ev, symObjAddr: 0x280C, symBinAddr: 0x100004048, symSize: 0x40 }
  - { offset: 0xCFF5, size: 0x8, addend: 0x0, symName: __ZNSt3__114__split_bufferINS_5tupleIJiiiEEERNS_9allocatorIS2_EEE17__destruct_at_endB8ne180100EPS2_, symObjAddr: 0x284C, symBinAddr: 0x100004088, symSize: 0x2C }
  - { offset: 0xD027, size: 0x8, addend: 0x0, symName: __ZNSt3__114__split_bufferINS_5tupleIJiiiEEERNS_9allocatorIS2_EEE17__destruct_at_endB8ne180100EPS2_NS_17integral_constantIbLb0EEE, symObjAddr: 0x2878, symBinAddr: 0x1000040B4, symSize: 0x80 }
  - { offset: 0xD067, size: 0x8, addend: 0x0, symName: __ZNKSt3__114__split_bufferINS_5tupleIJiiiEEERNS_9allocatorIS2_EEE9__end_capB8ne180100Ev, symObjAddr: 0x28F8, symBinAddr: 0x100004134, symSize: 0x28 }
  - { offset: 0xD08C, size: 0x8, addend: 0x0, symName: __ZNKSt3__117__compressed_pairIPNS_5tupleIJiiiEEERNS_9allocatorIS2_EEE5firstB8ne180100Ev, symObjAddr: 0x2920, symBinAddr: 0x10000415C, symSize: 0x24 }
  - { offset: 0xD0B1, size: 0x8, addend: 0x0, symName: __ZNSt3__16vectorINS_5tupleIJiiiEEENS_9allocatorIS2_EEE22__construct_one_at_endB8ne180100IJiiiEEEvDpOT_, symObjAddr: 0x2944, symBinAddr: 0x100004180, symSize: 0xA0 }
  - { offset: 0xD126, size: 0x8, addend: 0x0, symName: __ZNSt3__16vectorINS_5tupleIJiiiEEENS_9allocatorIS2_EEE24__emplace_back_slow_pathIJiiiEEEPS2_DpOT_, symObjAddr: 0x29E4, symBinAddr: 0x100004220, symSize: 0xF8 }
  - { offset: 0xD1AD, size: 0x8, addend: 0x0, symName: __ZNSt3__116allocator_traitsINS_9allocatorINS_5tupleIJiiiEEEEEE9constructB8ne180100IS3_JiiiEvEEvRS4_PT_DpOT0_, symObjAddr: 0x2ADC, symBinAddr: 0x100004318, symSize: 0x44 }
  - { offset: 0xD22C, size: 0x8, addend: 0x0, symName: __ZNSt3__19allocatorINS_5tupleIJiiiEEEE9constructB8ne180100IS2_JiiiEEEvPT_DpOT0_, symObjAddr: 0x2B20, symBinAddr: 0x10000435C, symSize: 0x40 }
  - { offset: 0xD2A7, size: 0x8, addend: 0x0, symName: __ZNSt3__15tupleIJiiiEEC1B8ne180100IJiiiELi0EEEDpOT_, symObjAddr: 0x2B60, symBinAddr: 0x10000439C, symSize: 0x44 }
  - { offset: 0xD318, size: 0x8, addend: 0x0, symName: __ZNSt3__15tupleIJiiiEEC2B8ne180100IJiiiELi0EEEDpOT_, symObjAddr: 0x2BA4, symBinAddr: 0x1000043E0, symSize: 0x44 }
  - { offset: 0xD389, size: 0x8, addend: 0x0, symName: __ZNSt3__112__tuple_implINS_15__tuple_indicesIJLm0ELm1ELm2EEEEJiiiEEC1B8ne180100IJLm0ELm1ELm2EEJiiiEJEJEJiiiEEENS1_IJXspT_EEEENS_13__tuple_typesIJDpT0_EEENS1_IJXspT1_EEEENS6_IJDpT2_EEEDpOT3_, symObjAddr: 0x2BE8, symBinAddr: 0x100004424, symSize: 0x44 }
  - { offset: 0xD457, size: 0x8, addend: 0x0, symName: __ZNSt3__112__tuple_implINS_15__tuple_indicesIJLm0ELm1ELm2EEEEJiiiEEC2B8ne180100IJLm0ELm1ELm2EEJiiiEJEJEJiiiEEENS1_IJXspT_EEEENS_13__tuple_typesIJDpT0_EEENS1_IJXspT1_EEEENS6_IJDpT2_EEEDpOT3_, symObjAddr: 0x2C2C, symBinAddr: 0x100004468, symSize: 0x5C }
  - { offset: 0xD525, size: 0x8, addend: 0x0, symName: __ZNSt3__112__tuple_leafILm0EiLb0EEC2B8ne180100IivEEOT_, symObjAddr: 0x2C88, symBinAddr: 0x1000044C4, symSize: 0x24 }
  - { offset: 0xD567, size: 0x8, addend: 0x0, symName: __ZNSt3__112__tuple_leafILm1EiLb0EEC2B8ne180100IivEEOT_, symObjAddr: 0x2CAC, symBinAddr: 0x1000044E8, symSize: 0x24 }
  - { offset: 0xD5A9, size: 0x8, addend: 0x0, symName: __ZNSt3__16vectorINS_5tupleIJiiiEEENS_9allocatorIS2_EEE11__make_iterB8ne180100EPS2_, symObjAddr: 0x2CD0, symBinAddr: 0x10000450C, symSize: 0x30 }
  - { offset: 0xD5DD, size: 0x8, addend: 0x0, symName: __ZNSt3__111__wrap_iterIPNS_5tupleIJiiiEEEEC1B8ne180100ES3_, symObjAddr: 0x2D00, symBinAddr: 0x10000453C, symSize: 0x34 }
  - { offset: 0xD614, size: 0x8, addend: 0x0, symName: __ZNSt3__111__wrap_iterIPNS_5tupleIJiiiEEEEC2B8ne180100ES3_, symObjAddr: 0x2D34, symBinAddr: 0x100004570, symSize: 0x20 }
  - { offset: 0xD64B, size: 0x8, addend: 0x0, symName: __ZNKSt3__16__lessIvvEclB8ne180100INS_5tupleIJiiiEEES4_EEbRKT_RKT0_, symObjAddr: 0x33F0, symBinAddr: 0x100004C2C, symSize: 0x34 }
  - { offset: 0xD69E, size: 0x8, addend: 0x0, symName: __ZNSt3__18_IterOpsINS_17_ClassicAlgPolicyEE9iter_swapB8ne180100IRPNS_5tupleIJiiiEEES7_EEvOT_OT0_, symObjAddr: 0x3424, symBinAddr: 0x100004C60, symSize: 0x34 }
  - { offset: 0xD6E6, size: 0x8, addend: 0x0, symName: __ZNSt3__18_IterOpsINS_17_ClassicAlgPolicyEE9iter_swapB8ne180100IRPNS_5tupleIJiiiEEES6_EEvOT_OT0_, symObjAddr: 0x397C, symBinAddr: 0x1000051B8, symSize: 0x34 }
  - { offset: 0xD72E, size: 0x8, addend: 0x0, symName: __ZNSt3__112__tuple_lessILm3EEclB8ne180100INS_5tupleIJiiiEEES4_EEbRKT_RKT0_, symObjAddr: 0x4484, symBinAddr: 0x100005CC0, symSize: 0xD8 }
  - { offset: 0xD797, size: 0x8, addend: 0x0, symName: __ZNSt3__112__tuple_lessILm2EEclB8ne180100INS_5tupleIJiiiEEES4_EEbRKT_RKT0_, symObjAddr: 0x4580, symBinAddr: 0x100005DBC, symSize: 0xDC }
  - { offset: 0xD7FB, size: 0x8, addend: 0x0, symName: __ZNKSt3__112__tuple_leafILm0EiLb0EE3getB8ne180100Ev, symObjAddr: 0x465C, symBinAddr: 0x100005E98, symSize: 0x14 }
  - { offset: 0xD825, size: 0x8, addend: 0x0, symName: __ZNSt3__112__tuple_lessILm1EEclB8ne180100INS_5tupleIJiiiEEES4_EEbRKT_RKT0_, symObjAddr: 0x4698, symBinAddr: 0x100005ED4, symSize: 0xDC }
  - { offset: 0xD889, size: 0x8, addend: 0x0, symName: __ZNKSt3__112__tuple_leafILm1EiLb0EE3getB8ne180100Ev, symObjAddr: 0x4774, symBinAddr: 0x100005FB0, symSize: 0x14 }
  - { offset: 0xD8B3, size: 0x8, addend: 0x0, symName: __ZNSt3__112__tuple_lessILm0EEclB8ne180100INS_5tupleIJiiiEEES4_EEbRKT_RKT0_, symObjAddr: 0x47B0, symBinAddr: 0x100005FEC, symSize: 0x20 }
  - { offset: 0xD900, size: 0x8, addend: 0x0, symName: __ZNKSt3__112__tuple_leafILm2EiLb0EE3getB8ne180100Ev, symObjAddr: 0x47D0, symBinAddr: 0x10000600C, symSize: 0x14 }
  - { offset: 0xD925, size: 0x8, addend: 0x0, symName: __ZNSt3__15tupleIJiiiEE4swapB8ne180100ERS1_, symObjAddr: 0x483C, symBinAddr: 0x100006078, symSize: 0x2C }
  - { offset: 0xD959, size: 0x8, addend: 0x0, symName: __ZNSt3__112__tuple_implINS_15__tuple_indicesIJLm0ELm1ELm2EEEEJiiiEE4swapB8ne180100ERS3_, symObjAddr: 0x4868, symBinAddr: 0x1000060A4, symSize: 0x88 }
  - { offset: 0xD98D, size: 0x8, addend: 0x0, symName: __ZNSt3__112__tuple_leafILm0EiLb0EE4swapB8ne180100ERS1_, symObjAddr: 0x4908, symBinAddr: 0x100006144, symSize: 0x30 }
  - { offset: 0xD9C1, size: 0x8, addend: 0x0, symName: __ZNSt3__112__tuple_leafILm1EiLb0EE4swapB8ne180100ERS1_, symObjAddr: 0x4938, symBinAddr: 0x100006174, symSize: 0x30 }
  - { offset: 0xD9F5, size: 0x8, addend: 0x0, symName: __ZNSt3__112__tuple_leafILm2EiLb0EE4swapB8ne180100ERS1_, symObjAddr: 0x4968, symBinAddr: 0x1000061A4, symSize: 0x30 }
  - { offset: 0xDA29, size: 0x8, addend: 0x0, symName: __ZNSt3__112__tuple_leafILm0EiLb0EE3getB8ne180100Ev, symObjAddr: 0x4A14, symBinAddr: 0x100006250, symSize: 0x14 }
  - { offset: 0xDA4E, size: 0x8, addend: 0x0, symName: __ZNSt3__112__tuple_leafILm1EiLb0EE3getB8ne180100Ev, symObjAddr: 0x4A68, symBinAddr: 0x1000062A4, symSize: 0x14 }
  - { offset: 0xDA73, size: 0x8, addend: 0x0, symName: __ZNSt3__112__tuple_leafILm2EiLb0EE3getB8ne180100Ev, symObjAddr: 0x4ABC, symBinAddr: 0x1000062F8, symSize: 0x14 }
  - { offset: 0xDA9D, size: 0x8, addend: 0x0, symName: __ZNSt3__18_IterOpsINS_17_ClassicAlgPolicyEE11__iter_moveB8ne180100IRPNS_5tupleIJiiiEEELi0EEEDTclsr3stdE4movedeclsr3stdE7declvalIRT_EEEEOS8_, symObjAddr: 0x4C70, symBinAddr: 0x1000064AC, symSize: 0x28 }
  - { offset: 0xDACF, size: 0x8, addend: 0x0, symName: __ZNSt3__15tupleIJiiiEEaSB8ne180100EOS1_, symObjAddr: 0x4C98, symBinAddr: 0x1000064D4, symSize: 0x3C }
  - { offset: 0xDB03, size: 0x8, addend: 0x0, symName: __ZNSt3__18_IterOpsINS_17_ClassicAlgPolicyEE25__validate_iter_referenceB8ne180100IRPNS_5tupleIJiiiEEEEEvv, symObjAddr: 0x4CD4, symBinAddr: 0x100006510, symSize: 0x4 }
  - { offset: 0xDB21, size: 0x8, addend: 0x0, symName: __ZNSt3__18_IterOpsINS_17_ClassicAlgPolicyEE4nextB8ne180100IPNS_5tupleIJiiiEEEEET_S7_S7_, symObjAddr: 0x4DFC, symBinAddr: 0x100006638, symSize: 0x18 }
  - { offset: 0xDB58, size: 0x8, addend: 0x0, symName: __ZNSt3__18_IterOpsINS_17_ClassicAlgPolicyEE9iter_swapB8ne180100IPNS_5tupleIJiiiEEES6_EEvOT_OT0_, symObjAddr: 0x5DA8, symBinAddr: 0x1000075E4, symSize: 0x34 }
  - { offset: 0xDBB9, size: 0x8, addend: 0x0, symName: __ZNSt3__14pairIPNS_5tupleIJiiiEEEbEC1B8ne180100IRS3_RbLi0EEEOT_OT0_, symObjAddr: 0x5DF8, symBinAddr: 0x100007634, symSize: 0x3C }
  - { offset: 0xDC16, size: 0x8, addend: 0x0, symName: __ZNSt3__14pairIPNS_5tupleIJiiiEEEbEC2B8ne180100IRS3_RbLi0EEEOT_OT0_, symObjAddr: 0x5E34, symBinAddr: 0x100007670, symSize: 0x38 }
  - { offset: 0xDC73, size: 0x8, addend: 0x0, symName: __ZNSt3__118__unwrap_iter_implINS_11__wrap_iterIPNS_5tupleIJiiiEEEEELb1EE8__unwrapB8ne180100ES5_, symObjAddr: 0x5E6C, symBinAddr: 0x1000076A8, symSize: 0x28 }
  - { offset: 0xDCA0, size: 0x8, addend: 0x0, symName: __ZNSt3__119__to_address_helperINS_11__wrap_iterIPNS_5tupleIJiiiEEEEEvE6__callB8ne180100ERKS5_, symObjAddr: 0x5EB8, symBinAddr: 0x1000076F4, symSize: 0x30 }
  - { offset: 0xDCC3, size: 0x8, addend: 0x0, symName: __ZNSt3__114pointer_traitsINS_11__wrap_iterIPNS_5tupleIJiiiEEEEEE10to_addressB8ne180100ES5_, symObjAddr: 0x5EE8, symBinAddr: 0x100007724, symSize: 0x2C }
  - { offset: 0xDCE6, size: 0x8, addend: 0x0, symName: __ZNSt3__112__tuple_leafILm0ERiLb0EE3getB8ne180100Ev, symObjAddr: 0x6038, symBinAddr: 0x100007874, symSize: 0x18 }
  - { offset: 0xDD0B, size: 0x8, addend: 0x0, symName: __ZNSt3__112__tuple_leafILm1ERiLb0EE3getB8ne180100Ev, symObjAddr: 0x6050, symBinAddr: 0x10000788C, symSize: 0x18 }
  - { offset: 0xDD30, size: 0x8, addend: 0x0, symName: __ZNSt3__112__tuple_leafILm2ERiLb0EE3getB8ne180100Ev, symObjAddr: 0x6068, symBinAddr: 0x1000078A4, symSize: 0x18 }
  - { offset: 0xDD54, size: 0x8, addend: 0x0, symName: __ZNKSt3__19basic_iosIcNS_11char_traitsIcEEE5widenB8ne180100Ec, symObjAddr: 0x6080, symBinAddr: 0x1000078BC, symSize: 0x84 }
  - { offset: 0xDDCC, size: 0x8, addend: 0x0, symName: __ZNKSt3__15ctypeIcE5widenB8ne180100Ec, symObjAddr: 0x6130, symBinAddr: 0x10000796C, symSize: 0x38 }
...
