---
triple:          'arm64-apple-darwin'
binary-path:     '/Users/mickaelosegueda/Desktop/Leetcode_Problems/142_HW3/TripNavigator'
relocations:
  - { offset: 0xC3E4, size: 0x8, addend: 0x0, symName: __ZStL8__ioinit, symObjAddr: 0x589A0, symBinAddr: 0x100010000, symSize: 0x0 }
  - { offset: 0xC417, size: 0x8, addend: 0x0, symName: __ZL3INF, symObjAddr: 0x3FEC, symBinAddr: 0x100008A30, symSize: 0x0 }
  - { offset: 0xCAF1, size: 0x8, addend: 0x0, symName: __ZNSt11__copy_moveILb0ELb0ESt26random_access_iterator_tagE12__assign_oneIiKiEEvPT_PT0_, symObjAddr: 0x3FC4, symBinAddr: 0x100007EA4, symSize: 0x28 }
  - { offset: 0xCB3B, size: 0x8, addend: 0x0, symName: __ZNSt11__copy_moveILb0ELb1ESt26random_access_iterator_tagE8__copy_mIKiiEEPT0_PT_S7_S5_, symObjAddr: 0x3F34, symBinAddr: 0x100007E14, symSize: 0x90 }
  - { offset: 0xCBA5, size: 0x8, addend: 0x0, symName: __ZSt14__copy_move_a2ILb0EPKiPiET1_T0_S4_S3_, symObjAddr: 0x3F08, symBinAddr: 0x100007DE8, symSize: 0x2C }
  - { offset: 0xCC0D, size: 0x8, addend: 0x0, symName: __ZNK9__gnu_cxx17__normal_iteratorIPKiSt6vectorIiSaIiEEE4baseEv, symObjAddr: 0x3EF4, symBinAddr: 0x100007DD4, symSize: 0x14 }
  - { offset: 0xCC31, size: 0x8, addend: 0x0, symName: __ZSt12__niter_wrapIPiET_RKS1_S1_, symObjAddr: 0x3EDC, symBinAddr: 0x100007DBC, symSize: 0x18 }
  - { offset: 0xCC6A, size: 0x8, addend: 0x0, symName: __ZSt14__copy_move_a1ILb0EPKiPiET1_T0_S4_S3_, symObjAddr: 0x3EB0, symBinAddr: 0x100007D90, symSize: 0x2C }
  - { offset: 0xCCCE, size: 0x8, addend: 0x0, symName: __ZSt12__niter_baseIPiET_S1_, symObjAddr: 0x3E9C, symBinAddr: 0x100007D7C, symSize: 0x14 }
  - { offset: 0xCCFF, size: 0x8, addend: 0x0, symName: __ZSt12__niter_baseIPKiSt6vectorIiSaIiEEET_N9__gnu_cxx17__normal_iteratorIS5_T0_EE, symObjAddr: 0x3E7C, symBinAddr: 0x100007D5C, symSize: 0x20 }
  - { offset: 0xCD39, size: 0x8, addend: 0x0, symName: __ZSt13__copy_move_aILb0EN9__gnu_cxx17__normal_iteratorIPKiSt6vectorIiSaIiEEEEPiET1_T0_SA_S9_, symObjAddr: 0x3E1C, symBinAddr: 0x100007CFC, symSize: 0x60 }
  - { offset: 0xCD9D, size: 0x8, addend: 0x0, symName: __ZSt12__miter_baseIN9__gnu_cxx17__normal_iteratorIPKiSt6vectorIiSaIiEEEEET_S8_, symObjAddr: 0x3E08, symBinAddr: 0x100007CE8, symSize: 0x14 }
  - { offset: 0xCDCE, size: 0x8, addend: 0x0, symName: __ZSt4copyIN9__gnu_cxx17__normal_iteratorIPKiSt6vectorIiSaIiEEEEPiET0_T_SA_S9_, symObjAddr: 0x3DC0, symBinAddr: 0x100007CA0, symSize: 0x48 }
  - { offset: 0xCE28, size: 0x8, addend: 0x0, symName: __ZNSt20__uninitialized_copyILb1EE13__uninit_copyIN9__gnu_cxx17__normal_iteratorIPKiSt6vectorIiSaIiEEEEPiEET0_T_SC_SB_, symObjAddr: 0x3D94, symBinAddr: 0x100007C74, symSize: 0x2C }
  - { offset: 0xCE7F, size: 0x8, addend: 0x0, symName: __ZSt18uninitialized_copyIN9__gnu_cxx17__normal_iteratorIPKiSt6vectorIiSaIiEEEEPiET0_T_SA_S9_, symObjAddr: 0x3D58, symBinAddr: 0x100007C38, symSize: 0x3C }
  - { offset: 0xCF1D, size: 0x8, addend: 0x0, symName: __ZN9__gnu_cxx17__normal_iteratorIPKiSt6vectorIiSaIiEEEC1ERKS2_, symObjAddr: 0x3D30, symBinAddr: 0x100007C10, symSize: 0x28 }
  - { offset: 0xCF6D, size: 0x8, addend: 0x0, symName: __ZSt22__uninitialized_copy_aIN9__gnu_cxx17__normal_iteratorIPKiSt6vectorIiSaIiEEEEPiiET0_T_SA_S9_RSaIT1_E, symObjAddr: 0x3D00, symBinAddr: 0x100007BE0, symSize: 0x30 }
  - { offset: 0xCFDC, size: 0x8, addend: 0x0, symName: __ZNKSt6vectorIiSaIiEE3endEv, symObjAddr: 0x3CD8, symBinAddr: 0x100007BB8, symSize: 0x28 }
  - { offset: 0xD004, size: 0x8, addend: 0x0, symName: __ZNKSt6vectorIiSaIiEE5beginEv, symObjAddr: 0x3CB4, symBinAddr: 0x100007B94, symSize: 0x24 }
  - { offset: 0xD03F, size: 0x8, addend: 0x0, symName: __ZNKSt12_Vector_baseIiSaIiEE19_M_get_Tp_allocatorEv, symObjAddr: 0x3CA0, symBinAddr: 0x100007B80, symSize: 0x14 }
  - { offset: 0xD067, size: 0x8, addend: 0x0, symName: __ZNKSt6vectorIiSaIiEE4sizeEv, symObjAddr: 0x3C78, symBinAddr: 0x100007B58, symSize: 0x28 }
  - { offset: 0xD08B, size: 0x8, addend: 0x0, symName: __ZSt9__fill_a1IPiiEN9__gnu_cxx11__enable_ifIXsrSt11__is_scalarIT0_E7__valueEvE6__typeET_S8_RKS4_, symObjAddr: 0x3C20, symBinAddr: 0x100007B00, symSize: 0x58 }
  - { offset: 0xD0FB, size: 0x8, addend: 0x0, symName: __ZSt7forwardIRKSt4pairIiiEEOT_RNSt16remove_referenceIS4_E4typeE, symObjAddr: 0x3C0C, symBinAddr: 0x100007AEC, symSize: 0x14 }
  - { offset: 0xD12B, size: 0x8, addend: 0x0, symName: __ZStltIiiEbRKSt4pairIT_T0_ES5_, symObjAddr: 0x3BA4, symBinAddr: 0x100007A84, symSize: 0x68 }
  - { offset: 0xD175, size: 0x8, addend: 0x0, symName: __ZSt19__relocate_object_aISt4pairIiS0_IiiEES2_SaIS2_EEvPT_PT0_RT1_, symObjAddr: 0x3AD0, symBinAddr: 0x1000079B0, symSize: 0xD4 }
  - { offset: 0xD295, size: 0x8, addend: 0x0, symName: __ZSt11__addressofISt4pairIiS0_IiiEEEPT_RS3_, symObjAddr: 0x3ABC, symBinAddr: 0x10000799C, symSize: 0x14 }
  - { offset: 0xD302, size: 0x8, addend: 0x0, symName: __ZNSt6vectorIiSaIiEEC1ERKS1_, symObjAddr: 0x39A8, symBinAddr: 0x100007888, symSize: 0x114 }
  - { offset: 0xD406, size: 0x8, addend: 0x0, symName: __ZSt7forwardIRKSt6vectorIiSaIiEEEOT_RNSt16remove_referenceIS5_E4typeE, symObjAddr: 0x3994, symBinAddr: 0x100007874, symSize: 0x14 }
  - { offset: 0xD436, size: 0x8, addend: 0x0, symName: __ZSt8__fill_aIPiiEvT_S1_RKT0_, symObjAddr: 0x3964, symBinAddr: 0x100007844, symSize: 0x30 }
  - { offset: 0xD490, size: 0x8, addend: 0x0, symName: __ZSt10_ConstructISt4pairIiiEJRKS1_EEvPT_DpOT0_, symObjAddr: 0x391C, symBinAddr: 0x1000077FC, symSize: 0x48 }
  - { offset: 0xD4D8, size: 0x8, addend: 0x0, symName: __ZSt11__addressofISt4pairIiiEEPT_RS2_, symObjAddr: 0x3908, symBinAddr: 0x1000077E8, symSize: 0x14 }
  - { offset: 0xD508, size: 0x8, addend: 0x0, symName: __ZStltIiSt4pairIiiEEbRKS0_IT_T0_ES6_, symObjAddr: 0x388C, symBinAddr: 0x10000776C, symSize: 0x7C }
  - { offset: 0xD552, size: 0x8, addend: 0x0, symName: __ZSt14__relocate_a_1IPSt4pairIiS0_IiiEES3_SaIS2_EET0_T_S6_S5_RT1_, symObjAddr: 0x3808, symBinAddr: 0x1000076E8, symSize: 0x84 }
  - { offset: 0xD5D5, size: 0x8, addend: 0x0, symName: __ZSt12__niter_baseIPSt4pairIiS0_IiiEEET_S4_, symObjAddr: 0x37F4, symBinAddr: 0x1000076D4, symSize: 0x14 }
  - { offset: 0xD60A, size: 0x8, addend: 0x0, symName: __ZNSt15__new_allocatorISt4pairIiS0_IiiEEE8allocateEmPKv, symObjAddr: 0x3764, symBinAddr: 0x100007644, symSize: 0x90 }
  - { offset: 0xD68C, size: 0x8, addend: 0x0, symName: __ZNKSt12_Vector_baseISt4pairIiS0_IiiEESaIS2_EE19_M_get_Tp_allocatorEv, symObjAddr: 0x3750, symBinAddr: 0x100007630, symSize: 0x14 }
  - { offset: 0xD6B0, size: 0x8, addend: 0x0, symName: __ZNSt6vectorISt4pairIiS0_IiiEESaIS2_EE11_S_max_sizeERKS3_, symObjAddr: 0x36F4, symBinAddr: 0x1000075D4, symSize: 0x5C }
  - { offset: 0xD75D, size: 0x8, addend: 0x0, symName: __ZSt10_ConstructISt6vectorIiSaIiEEJRKS2_EEvPT_DpOT0_, symObjAddr: 0x3678, symBinAddr: 0x100007558, symSize: 0x7C }
  - { offset: 0xD7A5, size: 0x8, addend: 0x0, symName: __ZSt10__fill_n_aIPimiET_S1_T0_RKT1_St26random_access_iterator_tag, symObjAddr: 0x3614, symBinAddr: 0x1000074F4, symSize: 0x64 }
  - { offset: 0xD825, size: 0x8, addend: 0x0, symName: __ZSt16__do_uninit_copyIPKSt4pairIiiEPS1_ET0_T_S6_S5_, symObjAddr: 0x35B0, symBinAddr: 0x100007490, symSize: 0x64 }
  - { offset: 0xD89F, size: 0x8, addend: 0x0, symName: __ZStgtIiSt4pairIiiEEbRKS0_IT_T0_ES6_, symObjAddr: 0x358C, symBinAddr: 0x10000746C, symSize: 0x24 }
  - { offset: 0xD8EF, size: 0x8, addend: 0x0, symName: __ZSt7forwardIRSt4pairIiS0_IiiEEEOT_RNSt16remove_referenceIS4_E4typeE, symObjAddr: 0x3578, symBinAddr: 0x100007458, symSize: 0x14 }
  - { offset: 0xD91F, size: 0x8, addend: 0x0, symName: __ZSt12__relocate_aIPSt4pairIiS0_IiiEES3_SaIS2_EET0_T_S6_S5_RT1_, symObjAddr: 0x351C, symBinAddr: 0x1000073FC, symSize: 0x5C }
  - { offset: 0xD9B9, size: 0x8, addend: 0x0, symName: __ZSt3maxImERKT_S2_S2_, symObjAddr: 0x34E4, symBinAddr: 0x1000073C4, symSize: 0x38 }
  - { offset: 0xD9FE, size: 0x8, addend: 0x0, symName: __ZNKSt6vectorISt4pairIiS0_IiiEESaIS2_EE4sizeEv, symObjAddr: 0x34B0, symBinAddr: 0x100007390, symSize: 0x34 }
  - { offset: 0xDA26, size: 0x8, addend: 0x0, symName: __ZNKSt6vectorISt4pairIiS0_IiiEESaIS2_EE8max_sizeEv, symObjAddr: 0x3490, symBinAddr: 0x100007370, symSize: 0x20 }
  - { offset: 0xDA4A, size: 0x8, addend: 0x0, symName: __ZSt18__do_uninit_fill_nIPSt6vectorIiSaIiEEmS2_ET_S4_T0_RKT1_, symObjAddr: 0x3400, symBinAddr: 0x1000072E0, symSize: 0x90 }
  - { offset: 0xDAC1, size: 0x8, addend: 0x0, symName: __ZNSt15__new_allocatorISt6vectorIiSaIiEEE8allocateEmPKv, symObjAddr: 0x3370, symBinAddr: 0x100007250, symSize: 0x90 }
  - { offset: 0xDB3F, size: 0x8, addend: 0x0, symName: __ZSt6fill_nIPimiET_S1_T0_RKT1_, symObjAddr: 0x3328, symBinAddr: 0x100007208, symSize: 0x48 }
  - { offset: 0xDBC1, size: 0x8, addend: 0x0, symName: __ZSt10_ConstructIiJEEvPT_DpOT0_, symObjAddr: 0x32FC, symBinAddr: 0x1000071DC, symSize: 0x2C }
  - { offset: 0xDBFB, size: 0x8, addend: 0x0, symName: __ZSt11__addressofIiEPT_RS0_, symObjAddr: 0x32E8, symBinAddr: 0x1000071C8, symSize: 0x14 }
  - { offset: 0xDC2F, size: 0x8, addend: 0x0, symName: __ZNSt15__new_allocatorIiE8allocateEmPKv, symObjAddr: 0x326C, symBinAddr: 0x10000714C, symSize: 0x7C }
  - { offset: 0xDCAD, size: 0x8, addend: 0x0, symName: __ZNSt20__uninitialized_copyILb0EE13__uninit_copyIPKSt4pairIiiEPS3_EET0_T_S8_S7_, symObjAddr: 0x3240, symBinAddr: 0x100007120, symSize: 0x2C }
  - { offset: 0xDD08, size: 0x8, addend: 0x0, symName: __ZNSt15__new_allocatorISt4pairIiiEE8allocateEmPKv, symObjAddr: 0x31C4, symBinAddr: 0x1000070A4, symSize: 0x7C }
  - { offset: 0xDD9E, size: 0x8, addend: 0x0, symName: __ZNSt15__new_allocatorISt4pairIiiEE10deallocateEPS1_m, symObjAddr: 0x3194, symBinAddr: 0x100007074, symSize: 0x30 }
  - { offset: 0xDE21, size: 0x8, addend: 0x0, symName: __ZN9__gnu_cxx5__ops14_Iter_comp_valISt7greaterIvEEC1EONS0_15_Iter_comp_iterIS3_EE, symObjAddr: 0x3170, symBinAddr: 0x100007050, symSize: 0x24 }
  - { offset: 0xDE55, size: 0x8, addend: 0x0, symName: __ZSt4moveIRN9__gnu_cxx5__ops15_Iter_comp_iterISt7greaterIvEEEEONSt16remove_referenceIT_E4typeEOS8_, symObjAddr: 0x315C, symBinAddr: 0x10000703C, symSize: 0x14 }
  - { offset: 0xDE89, size: 0x8, addend: 0x0, symName: __ZN9__gnu_cxx5__ops15_Iter_comp_iterISt7greaterIvEEclINS_17__normal_iteratorIPSt4pairIiS7_IiiEESt6vectorIS9_SaIS9_EEEESE_EEbT_T0_, symObjAddr: 0x3110, symBinAddr: 0x100006FF0, symSize: 0x4C }
  - { offset: 0xDEE1, size: 0x8, addend: 0x0, symName: __ZNSt4pairIiiEaSEOS0_, symObjAddr: 0x30C8, symBinAddr: 0x100006FA8, symSize: 0x48 }
  - { offset: 0xDF24, size: 0x8, addend: 0x0, symName: __ZNKSt7greaterIvEclIRSt4pairIiS2_IiiEES5_EEDTgtcl7forwardIT_Efp_Ecl7forwardIT0_Efp0_EEOS6_OS7_, symObjAddr: 0x3080, symBinAddr: 0x100006F60, symSize: 0x48 }
  - { offset: 0xDF7A, size: 0x8, addend: 0x0, symName: __ZNSt7greaterIvE6_S_cmpIRSt4pairIiS2_IiiEES5_EEDcOT_OT0_St17integral_constantIbLb0EE, symObjAddr: 0x303C, symBinAddr: 0x100006F1C, symSize: 0x44 }
  - { offset: 0xDFCC, size: 0x8, addend: 0x0, symName: __ZNSt6vectorISt4pairIiS0_IiiEESaIS2_EE11_S_relocateEPS2_S5_S5_RS3_, symObjAddr: 0x3008, symBinAddr: 0x100006EE8, symSize: 0x34 }
  - { offset: 0xE024, size: 0x8, addend: 0x0, symName: __ZSt12__to_addressISt4pairIiS0_IiiEEEPT_S4_, symObjAddr: 0x2FF4, symBinAddr: 0x100006ED4, symSize: 0x14 }
  - { offset: 0xE058, size: 0x8, addend: 0x0, symName: __ZNSt12_Vector_baseISt4pairIiS0_IiiEESaIS2_EE11_M_allocateEm, symObjAddr: 0x2FA4, symBinAddr: 0x100006E84, symSize: 0x50 }
  - { offset: 0xE0BA, size: 0x8, addend: 0x0, symName: __ZNKSt6vectorISt4pairIiS0_IiiEESaIS2_EE12_M_check_lenEmPKc, symObjAddr: 0x2ED4, symBinAddr: 0x100006DB4, symSize: 0xD0 }
  - { offset: 0xE150, size: 0x8, addend: 0x0, symName: __ZNSt15__new_allocatorISt4pairIiS0_IiiEEE10deallocateEPS2_m, symObjAddr: 0x2E98, symBinAddr: 0x100006D78, symSize: 0x3C }
  - { offset: 0xE192, size: 0x8, addend: 0x0, symName: __ZNSt22__uninitialized_fill_nILb1EE15__uninit_fill_nIPimiEET_S3_T0_RKT1_, symObjAddr: 0x2E6C, symBinAddr: 0x100006D4C, symSize: 0x2C }
  - { offset: 0xE1F5, size: 0x8, addend: 0x0, symName: __ZSt8_DestroyISt6vectorIiSaIiEEEvPT_, symObjAddr: 0x2E4C, symBinAddr: 0x100006D2C, symSize: 0x20 }
  - { offset: 0xE225, size: 0x8, addend: 0x0, symName: __ZSt11__addressofISt6vectorIiSaIiEEEPT_RS3_, symObjAddr: 0x2E38, symBinAddr: 0x100006D18, symSize: 0x14 }
  - { offset: 0xE255, size: 0x8, addend: 0x0, symName: __ZNSt22__uninitialized_fill_nILb0EE15__uninit_fill_nIPSt6vectorIiSaIiEEmS4_EET_S6_T0_RKT1_, symObjAddr: 0x2E0C, symBinAddr: 0x100006CEC, symSize: 0x2C }
  - { offset: 0xE2BC, size: 0x8, addend: 0x0, symName: __ZNSt15__new_allocatorISt6vectorIiSaIiEEE10deallocateEPS2_m, symObjAddr: 0x2DD0, symBinAddr: 0x100006CB0, symSize: 0x3C }
  - { offset: 0xE333, size: 0x8, addend: 0x0, symName: __ZNSt27__uninitialized_default_n_1ILb1EE18__uninit_default_nIPimEET_S3_T0_, symObjAddr: 0x2D6C, symBinAddr: 0x100006C4C, symSize: 0x64 }
  - { offset: 0xE3AA, size: 0x8, addend: 0x0, symName: __ZNSt15__new_allocatorIiE10deallocateEPim, symObjAddr: 0x2D3C, symBinAddr: 0x100006C1C, symSize: 0x30 }
  - { offset: 0xE421, size: 0x8, addend: 0x0, symName: __ZNSt12_Destroy_auxILb1EE9__destroyIPSt4pairIiiEEEvT_S5_, symObjAddr: 0x2D24, symBinAddr: 0x100006C04, symSize: 0x18 }
  - { offset: 0xE452, size: 0x8, addend: 0x0, symName: __ZSt18uninitialized_copyIPKSt4pairIiiEPS1_ET0_T_S6_S5_, symObjAddr: 0x2CF0, symBinAddr: 0x100006BD0, symSize: 0x34 }
  - { offset: 0xE4E8, size: 0x8, addend: 0x0, symName: __ZNSt6vectorISt4pairIiiESaIS1_EE11_S_max_sizeERKS2_, symObjAddr: 0x2C9C, symBinAddr: 0x100006B7C, symSize: 0x54 }
  - { offset: 0xE5DF, size: 0x8, addend: 0x0, symName: __ZNSt12_Vector_baseISt4pairIiiESaIS1_EE17_Vector_impl_dataC2Ev, symObjAddr: 0x2C70, symBinAddr: 0x100006B50, symSize: 0x2C }
  - { offset: 0xE648, size: 0x8, addend: 0x0, symName: __ZSt13__adjust_heapIN9__gnu_cxx17__normal_iteratorIPSt4pairIiS2_IiiEESt6vectorIS4_SaIS4_EEEElS4_NS0_5__ops15_Iter_comp_iterISt7greaterIvEEEEvT_T0_SG_T1_T2_, symObjAddr: 0x2A78, symBinAddr: 0x100006958, symSize: 0x1F8 }
  - { offset: 0xE705, size: 0x8, addend: 0x0, symName: __ZNK9__gnu_cxx17__normal_iteratorIPKSt4pairIiS1_IiiEESt6vectorIS3_SaIS3_EEE4baseEv, symObjAddr: 0x2A64, symBinAddr: 0x100006944, symSize: 0x14 }
  - { offset: 0xE752, size: 0x8, addend: 0x0, symName: __ZN9__gnu_cxx17__normal_iteratorIPKSt4pairIiS1_IiiEESt6vectorIS3_SaIS3_EEEC1ERKS5_, symObjAddr: 0x2A3C, symBinAddr: 0x10000691C, symSize: 0x28 }
  - { offset: 0xE77E, size: 0x8, addend: 0x0, symName: __ZNSt4pairIiS_IiiEEaSEOS1_, symObjAddr: 0x29F0, symBinAddr: 0x1000068D0, symSize: 0x4C }
  - { offset: 0xE7B6, size: 0x8, addend: 0x0, symName: __ZN9__gnu_cxx5__ops14_Iter_comp_valISt7greaterIvEEclINS_17__normal_iteratorIPSt4pairIiS7_IiiEESt6vectorIS9_SaIS9_EEEES9_EEbT_RT0_, symObjAddr: 0x29B0, symBinAddr: 0x100006890, symSize: 0x40 }
  - { offset: 0xE80E, size: 0x8, addend: 0x0, symName: __ZNK9__gnu_cxx17__normal_iteratorIPSt4pairIiS1_IiiEESt6vectorIS3_SaIS3_EEEplEl, symObjAddr: 0x2964, symBinAddr: 0x100006844, symSize: 0x4C }
  - { offset: 0xE846, size: 0x8, addend: 0x0, symName: __ZNK9__gnu_cxx17__normal_iteratorIPSt4pairIiS1_IiiEESt6vectorIS3_SaIS3_EEE4baseEv, symObjAddr: 0x2950, symBinAddr: 0x100006830, symSize: 0x14 }
  - { offset: 0xE86E, size: 0x8, addend: 0x0, symName: __ZNSt6vectorISt4pairIiS0_IiiEESaIS2_EE4backEv, symObjAddr: 0x2918, symBinAddr: 0x1000067F8, symSize: 0x38 }
  - { offset: 0xE896, size: 0x8, addend: 0x0, symName: __ZNSt6vectorISt4pairIiS0_IiiEESaIS2_EE17_M_realloc_appendIJS2_EEEvDpOT_, symObjAddr: 0x2720, symBinAddr: 0x100006600, symSize: 0x1F8 }
  - { offset: 0xEA0B, size: 0x8, addend: 0x0, symName: __ZZNSt6vectorISt4pairIiS0_IiiEESaIS2_EE17_M_realloc_appendIJS2_EEEvDpOT_EN6_GuardC1EPS2_mRS3_, symObjAddr: 0x267C, symBinAddr: 0x10000655C, symSize: 0x44 }
  - { offset: 0xEA4B, size: 0x8, addend: 0x0, symName: __ZZNSt6vectorISt4pairIiS0_IiiEESaIS2_EE17_M_realloc_appendIJS2_EEEvDpOT_EN6_GuardD1Ev, symObjAddr: 0x26C0, symBinAddr: 0x1000065A0, symSize: 0x60 }
  - { offset: 0xEB72, size: 0x8, addend: 0x0, symName: __ZSt7forwardISt4pairIiS0_IiiEEEOT_RNSt16remove_referenceIS3_E4typeE, symObjAddr: 0x2668, symBinAddr: 0x100006548, symSize: 0x14 }
  - { offset: 0xEBA2, size: 0x8, addend: 0x0, symName: __ZNSt12_Destroy_auxILb1EE9__destroyIPSt4pairIiS2_IiiEEEEvT_S6_, symObjAddr: 0x2650, symBinAddr: 0x100006530, symSize: 0x18 }
  - { offset: 0xEC15, size: 0x8, addend: 0x0, symName: __ZSt20uninitialized_fill_nIPimiET_S1_T0_RKT1_, symObjAddr: 0x261C, symBinAddr: 0x1000064FC, symSize: 0x34 }
  - { offset: 0xEC88, size: 0x8, addend: 0x0, symName: __ZNSt12_Destroy_auxILb0EE9__destroyIPSt6vectorIiSaIiEEEEvT_S6_, symObjAddr: 0x25D0, symBinAddr: 0x1000064B0, symSize: 0x4C }
  - { offset: 0xECC7, size: 0x8, addend: 0x0, symName: __ZSt20uninitialized_fill_nIPSt6vectorIiSaIiEEmS2_ET_S4_T0_RKT1_, symObjAddr: 0x25A0, symBinAddr: 0x100006480, symSize: 0x30 }
  - { offset: 0xED6C, size: 0x8, addend: 0x0, symName: __ZNSt12_Vector_baseISt6vectorIiSaIiEESaIS2_EE11_M_allocateEm, symObjAddr: 0x2550, symBinAddr: 0x100006430, symSize: 0x50 }
  - { offset: 0xEDE6, size: 0x8, addend: 0x0, symName: __ZNSt12_Vector_baseISt6vectorIiSaIiEESaIS2_EE17_Vector_impl_dataC2Ev, symObjAddr: 0x2524, symBinAddr: 0x100006404, symSize: 0x2C }
  - { offset: 0xEE33, size: 0x8, addend: 0x0, symName: __ZNSt12_Destroy_auxILb1EE9__destroyIPiEEvT_S3_, symObjAddr: 0x250C, symBinAddr: 0x1000063EC, symSize: 0x18 }
  - { offset: 0xEE64, size: 0x8, addend: 0x0, symName: __ZSt25__uninitialized_default_nIPimET_S1_T0_, symObjAddr: 0x24E0, symBinAddr: 0x1000063C0, symSize: 0x2C }
  - { offset: 0xEEF1, size: 0x8, addend: 0x0, symName: __ZNSt12_Vector_baseIiSaIiEE11_M_allocateEm, symObjAddr: 0x2490, symBinAddr: 0x100006370, symSize: 0x50 }
  - { offset: 0xEF6B, size: 0x8, addend: 0x0, symName: __ZNSt12_Vector_baseIiSaIiEE17_Vector_impl_dataC2Ev, symObjAddr: 0x2464, symBinAddr: 0x100006344, symSize: 0x2C }
  - { offset: 0xEFA4, size: 0x8, addend: 0x0, symName: __ZSt3minImERKT_S2_S2_, symObjAddr: 0x242C, symBinAddr: 0x10000630C, symSize: 0x38 }
  - { offset: 0xEFF7, size: 0x8, addend: 0x0, symName: __ZSt8_DestroyIPSt4pairIiiEEvT_S3_, symObjAddr: 0x2404, symBinAddr: 0x1000062E4, symSize: 0x28 }
  - { offset: 0xF036, size: 0x8, addend: 0x0, symName: __ZSt22__uninitialized_copy_aIPKSt4pairIiiEPS1_S1_ET0_T_S6_S5_RSaIT1_E, symObjAddr: 0x23D4, symBinAddr: 0x1000062B4, symSize: 0x30 }
  - { offset: 0xF0A5, size: 0x8, addend: 0x0, symName: __ZNSt12_Vector_baseISt4pairIiiESaIS1_EE11_M_allocateEm, symObjAddr: 0x2384, symBinAddr: 0x100006264, symSize: 0x50 }
  - { offset: 0xF103, size: 0x8, addend: 0x0, symName: __ZNSt6vectorISt4pairIiiESaIS1_EE17_S_check_init_lenEmRKS2_, symObjAddr: 0x2300, symBinAddr: 0x1000061E0, symSize: 0x84 }
  - { offset: 0xF1F6, size: 0x8, addend: 0x0, symName: __ZNKSt16initializer_listISt4pairIiiEE4sizeEv, symObjAddr: 0x22E8, symBinAddr: 0x1000061C8, symSize: 0x18 }
  - { offset: 0xF21E, size: 0x8, addend: 0x0, symName: __ZNSt12_Vector_baseISt4pairIiiESaIS1_EE13_M_deallocateEPS1_m, symObjAddr: 0x2290, symBinAddr: 0x100006170, symSize: 0x58 }
  - { offset: 0xF2BC, size: 0x8, addend: 0x0, symName: __ZNSt12_Vector_baseISt4pairIiiESaIS1_EE12_Vector_implC1ERKS2_, symObjAddr: 0x2244, symBinAddr: 0x100006124, symSize: 0x4C }
  - { offset: 0xF360, size: 0x8, addend: 0x0, symName: __ZSt10__pop_heapIN9__gnu_cxx17__normal_iteratorIPSt4pairIiS2_IiiEESt6vectorIS4_SaIS4_EEEENS0_5__ops15_Iter_comp_iterISt7greaterIvEEEEvT_SF_SF_RT0_, symObjAddr: 0x2194, symBinAddr: 0x100006074, symSize: 0xB0 }
  - { offset: 0xF3F4, size: 0x8, addend: 0x0, symName: __ZN9__gnu_cxx17__normal_iteratorIPSt4pairIiS1_IiiEESt6vectorIS3_SaIS3_EEEmmEv, symObjAddr: 0x216C, symBinAddr: 0x10000604C, symSize: 0x28 }
  - { offset: 0xF41C, size: 0x8, addend: 0x0, symName: __ZNK9__gnu_cxx17__normal_iteratorIPKSt4pairIiS1_IiiEESt6vectorIS3_SaIS3_EEEdeEv, symObjAddr: 0x2154, symBinAddr: 0x100006034, symSize: 0x18 }
  - { offset: 0xF446, size: 0x8, addend: 0x0, symName: __ZN9__gnu_cxxeqIPKSt4pairIiS1_IiiEESt6vectorIS3_SaIS3_EEEEbRKNS_17__normal_iteratorIT_T0_EESE_, symObjAddr: 0x2110, symBinAddr: 0x100005FF0, symSize: 0x44 }
  - { offset: 0xF494, size: 0x8, addend: 0x0, symName: __ZNKSt6vectorISt4pairIiS0_IiiEESaIS2_EE3endEv, symObjAddr: 0x20E8, symBinAddr: 0x100005FC8, symSize: 0x28 }
  - { offset: 0xF4BC, size: 0x8, addend: 0x0, symName: __ZNKSt6vectorISt4pairIiS0_IiiEESaIS2_EE5beginEv, symObjAddr: 0x20C4, symBinAddr: 0x100005FA4, symSize: 0x24 }
  - { offset: 0xF4E6, size: 0x8, addend: 0x0, symName: __ZSt11__push_heapIN9__gnu_cxx17__normal_iteratorIPSt4pairIiS2_IiiEESt6vectorIS4_SaIS4_EEEElS4_NS0_5__ops14_Iter_comp_valISt7greaterIvEEEEvT_T0_SG_T1_RT2_, symObjAddr: 0x1F84, symBinAddr: 0x100005E64, symSize: 0x140 }
  - { offset: 0xF584, size: 0x8, addend: 0x0, symName: __ZN9__gnu_cxxmiIPSt4pairIiS1_IiiEESt6vectorIS3_SaIS3_EEEENS_17__normal_iteratorIT_T0_E15difference_typeERKSB_SE_, symObjAddr: 0x1F38, symBinAddr: 0x100005E18, symSize: 0x4C }
  - { offset: 0xF5D2, size: 0x8, addend: 0x0, symName: __ZNK9__gnu_cxx17__normal_iteratorIPSt4pairIiS1_IiiEESt6vectorIS3_SaIS3_EEEdeEv, symObjAddr: 0x1F20, symBinAddr: 0x100005E00, symSize: 0x18 }
  - { offset: 0xF5FA, size: 0x8, addend: 0x0, symName: __ZNK9__gnu_cxx17__normal_iteratorIPSt4pairIiS1_IiiEESt6vectorIS3_SaIS3_EEEmiEl, symObjAddr: 0x1ED0, symBinAddr: 0x100005DB0, symSize: 0x50 }
  - { offset: 0xF656, size: 0x8, addend: 0x0, symName: __ZN9__gnu_cxx5__ops14_Iter_comp_valISt7greaterIvEEC1ES3_, symObjAddr: 0x1EAC, symBinAddr: 0x100005D8C, symSize: 0x24 }
  - { offset: 0xF6A7, size: 0x8, addend: 0x0, symName: __ZN9__gnu_cxx17__normal_iteratorIPSt4pairIiS1_IiiEESt6vectorIS3_SaIS3_EEEC1ERKS4_, symObjAddr: 0x1E84, symBinAddr: 0x100005D64, symSize: 0x28 }
  - { offset: 0xF6D3, size: 0x8, addend: 0x0, symName: __ZNSt6vectorISt4pairIiS0_IiiEESaIS2_EE12emplace_backIJS2_EEERS2_DpOT_, symObjAddr: 0x1D9C, symBinAddr: 0x100005C7C, symSize: 0xE8 }
  - { offset: 0xF772, size: 0x8, addend: 0x0, symName: __ZSt8_DestroyIPSt4pairIiS0_IiiEEEvT_S4_, symObjAddr: 0x1D74, symBinAddr: 0x100005C54, symSize: 0x28 }
  - { offset: 0xF7B5, size: 0x8, addend: 0x0, symName: __ZNSt12_Vector_baseISt4pairIiS0_IiiEESaIS2_EE13_M_deallocateEPS2_m, symObjAddr: 0x1D1C, symBinAddr: 0x100005BFC, symSize: 0x58 }
  - { offset: 0xF850, size: 0x8, addend: 0x0, symName: __ZNSt15__new_allocatorISt4pairIiS0_IiiEEED2Ev, symObjAddr: 0x1D08, symBinAddr: 0x100005BE8, symSize: 0x14 }
  - { offset: 0xF88C, size: 0x8, addend: 0x0, symName: __ZNSt12_Vector_baseISt4pairIiS0_IiiEESaIS2_EE17_Vector_impl_dataC2Ev, symObjAddr: 0x1CDC, symBinAddr: 0x100005BBC, symSize: 0x2C }
  - { offset: 0xF8C0, size: 0x8, addend: 0x0, symName: __ZSt24__uninitialized_fill_n_aIPimiiET_S1_T0_RKT1_RSaIT2_E, symObjAddr: 0x1CAC, symBinAddr: 0x100005B8C, symSize: 0x30 }
  - { offset: 0xF934, size: 0x8, addend: 0x0, symName: __ZSt8_DestroyIPSt6vectorIiSaIiEEEvT_S4_, symObjAddr: 0x1C84, symBinAddr: 0x100005B64, symSize: 0x28 }
  - { offset: 0xF973, size: 0x8, addend: 0x0, symName: __ZSt24__uninitialized_fill_n_aIPSt6vectorIiSaIiEEmS2_S2_ET_S4_T0_RKT1_RSaIT2_E, symObjAddr: 0x1C54, symBinAddr: 0x100005B34, symSize: 0x30 }
  - { offset: 0xF9EB, size: 0x8, addend: 0x0, symName: __ZNSt12_Vector_baseISt6vectorIiSaIiEESaIS2_EE13_M_deallocateEPS2_m, symObjAddr: 0x1BFC, symBinAddr: 0x100005ADC, symSize: 0x58 }
  - { offset: 0xFA65, size: 0x8, addend: 0x0, symName: __ZNSt12_Vector_baseISt6vectorIiSaIiEESaIS2_EE17_M_create_storageEm, symObjAddr: 0x1B90, symBinAddr: 0x100005A70, symSize: 0x6C }
  - { offset: 0xFAC1, size: 0x8, addend: 0x0, symName: __ZNSt12_Vector_baseISt6vectorIiSaIiEESaIS2_EE12_Vector_implC1ERKS3_, symObjAddr: 0x1B44, symBinAddr: 0x100005A24, symSize: 0x4C }
  - { offset: 0xFB5B, size: 0x8, addend: 0x0, symName: __ZNSt6vectorIS_IiSaIiEESaIS1_EE11_S_max_sizeERKS2_, symObjAddr: 0x1AE8, symBinAddr: 0x1000059C8, symSize: 0x5C }
  - { offset: 0xFC08, size: 0x8, addend: 0x0, symName: __ZSt8_DestroyIPiEvT_S1_, symObjAddr: 0x1AC0, symBinAddr: 0x1000059A0, symSize: 0x28 }
  - { offset: 0xFC47, size: 0x8, addend: 0x0, symName: __ZSt27__uninitialized_default_n_aIPimiET_S1_T0_RSaIT1_E, symObjAddr: 0x1A98, symBinAddr: 0x100005978, symSize: 0x28 }
  - { offset: 0xFCA6, size: 0x8, addend: 0x0, symName: __ZNSt12_Vector_baseIiSaIiEE13_M_deallocateEPim, symObjAddr: 0x1A40, symBinAddr: 0x100005920, symSize: 0x58 }
  - { offset: 0xFD20, size: 0x8, addend: 0x0, symName: __ZNSt12_Vector_baseIiSaIiEE17_M_create_storageEm, symObjAddr: 0x19E0, symBinAddr: 0x1000058C0, symSize: 0x60 }
  - { offset: 0xFD7C, size: 0x8, addend: 0x0, symName: __ZNSt12_Vector_baseIiSaIiEE12_Vector_implC1ERKS0_, symObjAddr: 0x1994, symBinAddr: 0x100005874, symSize: 0x4C }
  - { offset: 0xFE16, size: 0x8, addend: 0x0, symName: __ZNSt6vectorIiSaIiEE11_S_max_sizeERKS0_, symObjAddr: 0x1940, symBinAddr: 0x100005820, symSize: 0x54 }
  - { offset: 0xFEC7, size: 0x8, addend: 0x0, symName: __ZNK9__gnu_cxx17__normal_iteratorIPSt4pairIiiESt6vectorIS2_SaIS2_EEE4baseEv, symObjAddr: 0x192C, symBinAddr: 0x10000580C, symSize: 0x14 }
  - { offset: 0xFF14, size: 0x8, addend: 0x0, symName: __ZN9__gnu_cxx17__normal_iteratorIPSt4pairIiiESt6vectorIS2_SaIS2_EEEC1ERKS3_, symObjAddr: 0x1904, symBinAddr: 0x1000057E4, symSize: 0x28 }
  - { offset: 0xFF78, size: 0x8, addend: 0x0, symName: __ZNSt12_Vector_baseISt4pairIiiESaIS1_EE19_M_get_Tp_allocatorEv, symObjAddr: 0x18F0, symBinAddr: 0x1000057D0, symSize: 0x14 }
  - { offset: 0xFFA0, size: 0x8, addend: 0x0, symName: __ZNSt6vectorISt4pairIiiESaIS1_EE19_M_range_initializeIPKS1_EEvT_S7_St20forward_iterator_tag, symObjAddr: 0x180C, symBinAddr: 0x1000056EC, symSize: 0xE4 }
  - { offset: 0x100AC, size: 0x8, addend: 0x0, symName: __ZNKSt16initializer_listISt4pairIiiEE3endEv, symObjAddr: 0x17D4, symBinAddr: 0x1000056B4, symSize: 0x38 }
  - { offset: 0x100D4, size: 0x8, addend: 0x0, symName: __ZNKSt16initializer_listISt4pairIiiEE5beginEv, symObjAddr: 0x17BC, symBinAddr: 0x10000569C, symSize: 0x18 }
  - { offset: 0x1011D, size: 0x8, addend: 0x0, symName: __ZNSt12_Vector_baseISt4pairIiiESaIS1_EED2Ev, symObjAddr: 0x176C, symBinAddr: 0x10000564C, symSize: 0x50 }
  - { offset: 0x10166, size: 0x8, addend: 0x0, symName: __ZNSt12_Vector_baseISt4pairIiiESaIS1_EEC2ERKS2_, symObjAddr: 0x1744, symBinAddr: 0x100005624, symSize: 0x28 }
  - { offset: 0x101B7, size: 0x8, addend: 0x0, symName: __ZNSt12_Vector_baseISt4pairIiiESaIS1_EE12_Vector_implD1Ev, symObjAddr: 0x1718, symBinAddr: 0x1000055F8, symSize: 0x2C }
  - { offset: 0x1021D, size: 0x8, addend: 0x0, symName: __ZNSt15__new_allocatorISt4pairIiiEED2Ev, symObjAddr: 0x1704, symBinAddr: 0x1000055E4, symSize: 0x14 }
  - { offset: 0x10257, size: 0x8, addend: 0x0, symName: __ZSt7forwardIRiEOT_RNSt16remove_referenceIS1_E4typeE, symObjAddr: 0x16F0, symBinAddr: 0x1000055D0, symSize: 0x14 }
  - { offset: 0x1028B, size: 0x8, addend: 0x0, symName: __ZNSt6vectorISt4pairIiS0_IiiEESaIS2_EE8pop_backEv, symObjAddr: 0x169C, symBinAddr: 0x10000557C, symSize: 0x54 }
  - { offset: 0x10303, size: 0x8, addend: 0x0, symName: __ZSt8pop_heapIN9__gnu_cxx17__normal_iteratorIPSt4pairIiS2_IiiEESt6vectorIS4_SaIS4_EEEESt7greaterIvEEvT_SC_T0_, symObjAddr: 0x1638, symBinAddr: 0x100005518, symSize: 0x64 }
  - { offset: 0x1038C, size: 0x8, addend: 0x0, symName: __ZSt4moveIRSt7greaterIvEEONSt16remove_referenceIT_E4typeEOS4_, symObjAddr: 0x1624, symBinAddr: 0x100005504, symSize: 0x14 }
  - { offset: 0x103C0, size: 0x8, addend: 0x0, symName: __ZNKSt6vectorISt4pairIiS0_IiiEESaIS2_EE5frontEv, symObjAddr: 0x15FC, symBinAddr: 0x1000054DC, symSize: 0x28 }
  - { offset: 0x103E8, size: 0x8, addend: 0x0, symName: __ZNKSt6vectorISt4pairIiS0_IiiEESaIS2_EE5emptyEv, symObjAddr: 0x15C4, symBinAddr: 0x1000054A4, symSize: 0x38 }
  - { offset: 0x1040C, size: 0x8, addend: 0x0, symName: __ZSt9push_heapIN9__gnu_cxx17__normal_iteratorIPSt4pairIiS2_IiiEESt6vectorIS4_SaIS4_EEEESt7greaterIvEEvT_SC_T0_, symObjAddr: 0x1514, symBinAddr: 0x1000053F4, symSize: 0xB0 }
  - { offset: 0x1049D, size: 0x8, addend: 0x0, symName: __ZNSt6vectorISt4pairIiS0_IiiEESaIS2_EE3endEv, symObjAddr: 0x14EC, symBinAddr: 0x1000053CC, symSize: 0x28 }
  - { offset: 0x104C5, size: 0x8, addend: 0x0, symName: __ZNSt6vectorISt4pairIiS0_IiiEESaIS2_EE5beginEv, symObjAddr: 0x14C8, symBinAddr: 0x1000053A8, symSize: 0x24 }
  - { offset: 0x104ED, size: 0x8, addend: 0x0, symName: __ZNSt6vectorISt4pairIiS0_IiiEESaIS2_EE9push_backEOS2_, symObjAddr: 0x1498, symBinAddr: 0x100005378, symSize: 0x30 }
  - { offset: 0x1055D, size: 0x8, addend: 0x0, symName: __ZNSt12_Vector_baseISt4pairIiS0_IiiEESaIS2_EE19_M_get_Tp_allocatorEv, symObjAddr: 0x1484, symBinAddr: 0x100005364, symSize: 0x14 }
  - { offset: 0x105A6, size: 0x8, addend: 0x0, symName: __ZNSt12_Vector_baseISt4pairIiS0_IiiEESaIS2_EED2Ev, symObjAddr: 0x1428, symBinAddr: 0x100005308, symSize: 0x5C }
  - { offset: 0x105FF, size: 0x8, addend: 0x0, symName: __ZNSt12_Vector_baseISt4pairIiS0_IiiEESaIS2_EE12_Vector_implC1Ev, symObjAddr: 0x13F0, symBinAddr: 0x1000052D0, symSize: 0x38 }
  - { offset: 0x10665, size: 0x8, addend: 0x0, symName: __ZNSt6vectorIiSaIiEE18_M_fill_initializeEmRKi, symObjAddr: 0x1398, symBinAddr: 0x100005278, symSize: 0x58 }
  - { offset: 0x106E5, size: 0x8, addend: 0x0, symName: __ZNSt12_Vector_baseISt6vectorIiSaIiEESaIS2_EE19_M_get_Tp_allocatorEv, symObjAddr: 0x1384, symBinAddr: 0x100005264, symSize: 0x14 }
  - { offset: 0x1070D, size: 0x8, addend: 0x0, symName: __ZNSt6vectorIS_IiSaIiEESaIS1_EE18_M_fill_initializeEmRKS1_, symObjAddr: 0x132C, symBinAddr: 0x10000520C, symSize: 0x58 }
  - { offset: 0x10776, size: 0x8, addend: 0x0, symName: __ZNSt12_Vector_baseISt6vectorIiSaIiEESaIS2_EED2Ev, symObjAddr: 0x12D0, symBinAddr: 0x1000051B0, symSize: 0x5C }
  - { offset: 0x107CC, size: 0x8, addend: 0x0, symName: __ZNSt12_Vector_baseISt6vectorIiSaIiEESaIS2_EEC2EmRKS3_, symObjAddr: 0x127C, symBinAddr: 0x10000515C, symSize: 0x54 }
  - { offset: 0x10825, size: 0x8, addend: 0x0, symName: __ZNSt12_Vector_baseISt6vectorIiSaIiEESaIS2_EE12_Vector_implD1Ev, symObjAddr: 0x1250, symBinAddr: 0x100005130, symSize: 0x2C }
  - { offset: 0x10866, size: 0x8, addend: 0x0, symName: __ZNSt6vectorIS_IiSaIiEESaIS1_EE17_S_check_init_lenEmRKS2_, symObjAddr: 0x11CC, symBinAddr: 0x1000050AC, symSize: 0x84 }
  - { offset: 0x10932, size: 0x8, addend: 0x0, symName: __ZNSt15__new_allocatorISt6vectorIiSaIiEEED2Ev, symObjAddr: 0x11B8, symBinAddr: 0x100005098, symSize: 0x14 }
  - { offset: 0x109A2, size: 0x8, addend: 0x0, symName: __ZNSt12_Vector_baseIiSaIiEE19_M_get_Tp_allocatorEv, symObjAddr: 0x11A4, symBinAddr: 0x100005084, symSize: 0x14 }
  - { offset: 0x109CA, size: 0x8, addend: 0x0, symName: __ZNSt6vectorIiSaIiEE21_M_default_initializeEm, symObjAddr: 0x1154, symBinAddr: 0x100005034, symSize: 0x50 }
  - { offset: 0x10A23, size: 0x8, addend: 0x0, symName: __ZNSt12_Vector_baseIiSaIiEED2Ev, symObjAddr: 0x1104, symBinAddr: 0x100004FE4, symSize: 0x50 }
  - { offset: 0x10A79, size: 0x8, addend: 0x0, symName: __ZNSt12_Vector_baseIiSaIiEEC2EmRKS0_, symObjAddr: 0x10B0, symBinAddr: 0x100004F90, symSize: 0x54 }
  - { offset: 0x10AD2, size: 0x8, addend: 0x0, symName: __ZNSt12_Vector_baseIiSaIiEE12_Vector_implD1Ev, symObjAddr: 0x1084, symBinAddr: 0x100004F64, symSize: 0x2C }
  - { offset: 0x10B13, size: 0x8, addend: 0x0, symName: __ZNSt6vectorIiSaIiEE17_S_check_init_lenEmRKS0_, symObjAddr: 0x1000, symBinAddr: 0x100004EE0, symSize: 0x84 }
  - { offset: 0x10BDF, size: 0x8, addend: 0x0, symName: __ZNSt15__new_allocatorIiED2Ev, symObjAddr: 0xFEC, symBinAddr: 0x100004ECC, symSize: 0x14 }
  - { offset: 0x10C5B, size: 0x8, addend: 0x0, symName: __ZNSt4pairIiiEC1IRiS2_Lb1EEEOT_OT0_, symObjAddr: 0xFA4, symBinAddr: 0x100004E84, symSize: 0x48 }
  - { offset: 0x10CA1, size: 0x8, addend: 0x0, symName: __ZNK9__gnu_cxx17__normal_iteratorIPSt4pairIiiESt6vectorIS2_SaIS2_EEEdeEv, symObjAddr: 0xF8C, symBinAddr: 0x100004E6C, symSize: 0x18 }
  - { offset: 0x10CC9, size: 0x8, addend: 0x0, symName: __ZN9__gnu_cxx17__normal_iteratorIPSt4pairIiiESt6vectorIS2_SaIS2_EEEppEv, symObjAddr: 0xF64, symBinAddr: 0x100004E44, symSize: 0x28 }
  - { offset: 0x10CF3, size: 0x8, addend: 0x0, symName: __ZN9__gnu_cxxneIPSt4pairIiiESt6vectorIS2_SaIS2_EEEEbRKNS_17__normal_iteratorIT_T0_EESC_, symObjAddr: 0xF20, symBinAddr: 0x100004E00, symSize: 0x44 }
  - { offset: 0x10D41, size: 0x8, addend: 0x0, symName: __ZNSt6vectorISt4pairIiiESaIS1_EE3endEv, symObjAddr: 0xEF8, symBinAddr: 0x100004DD8, symSize: 0x28 }
  - { offset: 0x10D69, size: 0x8, addend: 0x0, symName: __ZNSt6vectorISt4pairIiiESaIS1_EE5beginEv, symObjAddr: 0xED4, symBinAddr: 0x100004DB4, symSize: 0x24 }
  - { offset: 0x10DB2, size: 0x8, addend: 0x0, symName: __ZNSt6vectorISt4pairIiiESaIS1_EED1Ev, symObjAddr: 0xE78, symBinAddr: 0x100004D58, symSize: 0x5C }
  - { offset: 0x10E3A, size: 0x8, addend: 0x0, symName: __ZNSt6vectorISt4pairIiiESaIS1_EEC1ESt16initializer_listIS1_ERKS2_, symObjAddr: 0xE08, symBinAddr: 0x100004CE8, symSize: 0x70 }
  - { offset: 0x10EE3, size: 0x8, addend: 0x0, symName: __ZNSt4pairIiiEC1IRiiLb1EEEOT_OT0_, symObjAddr: 0xDC0, symBinAddr: 0x100004CA0, symSize: 0x48 }
  - { offset: 0x10F6D, size: 0x8, addend: 0x0, symName: __ZNSt4pairIiiEC1IiRiLb1EEEOT_OT0_, symObjAddr: 0xD78, symBinAddr: 0x100004C58, symSize: 0x48 }
  - { offset: 0x10FB3, size: 0x8, addend: 0x0, symName: __ZNSt14priority_queueISt4pairIiS0_IiiEESt6vectorIS2_SaIS2_EESt7greaterIvEE3popEv, symObjAddr: 0xD2C, symBinAddr: 0x100004C0C, symSize: 0x4C }
  - { offset: 0x10FDB, size: 0x8, addend: 0x0, symName: __ZNKSt14priority_queueISt4pairIiS0_IiiEESt6vectorIS2_SaIS2_EESt7greaterIvEE3topEv, symObjAddr: 0xD10, symBinAddr: 0x100004BF0, symSize: 0x1C }
  - { offset: 0x11003, size: 0x8, addend: 0x0, symName: __ZNKSt14priority_queueISt4pairIiS0_IiiEESt6vectorIS2_SaIS2_EESt7greaterIvEE5emptyEv, symObjAddr: 0xCF4, symBinAddr: 0x100004BD4, symSize: 0x1C }
  - { offset: 0x1102B, size: 0x8, addend: 0x0, symName: __ZNSt14priority_queueISt4pairIiS0_IiiEESt6vectorIS2_SaIS2_EESt7greaterIvEE4pushEOS2_, symObjAddr: 0xC94, symBinAddr: 0x100004B74, symSize: 0x60 }
  - { offset: 0x110A7, size: 0x8, addend: 0x0, symName: __ZNSt4pairIiS_IiiEEC1IiS0_Lb1EEERKiRKS0_, symObjAddr: 0xC58, symBinAddr: 0x100004B38, symSize: 0x3C }
  - { offset: 0x11131, size: 0x8, addend: 0x0, symName: __ZNSt4pairIiiEC1IiiLb1EEEOT_OT0_, symObjAddr: 0xC10, symBinAddr: 0x100004AF0, symSize: 0x48 }
  - { offset: 0x11198, size: 0x8, addend: 0x0, symName: __ZNSt6vectorISt4pairIiS0_IiiEESaIS2_EED1Ev, symObjAddr: 0xBB4, symBinAddr: 0x100004A94, symSize: 0x5C }
  - { offset: 0x11214, size: 0x8, addend: 0x0, symName: __ZNSt14priority_queueISt4pairIiS0_IiiEESt6vectorIS2_SaIS2_EESt7greaterIvEEC1IS5_vEEv, symObjAddr: 0xB88, symBinAddr: 0x100004A68, symSize: 0x2C }
  - { offset: 0x1125E, size: 0x8, addend: 0x0, symName: __ZNSt6vectorISt4pairIiS0_IiiEESaIS2_EEC1Ev, symObjAddr: 0xB68, symBinAddr: 0x100004A48, symSize: 0x20 }
  - { offset: 0x1129A, size: 0x8, addend: 0x0, symName: __ZNSt12_Vector_baseISt4pairIiS0_IiiEESaIS2_EEC2Ev, symObjAddr: 0xB48, symBinAddr: 0x100004A28, symSize: 0x20 }
  - { offset: 0x112E3, size: 0x8, addend: 0x0, symName: __ZNSt12_Vector_baseISt4pairIiS0_IiiEESaIS2_EE12_Vector_implD1Ev, symObjAddr: 0xB1C, symBinAddr: 0x1000049FC, symSize: 0x2C }
  - { offset: 0x11367, size: 0x8, addend: 0x0, symName: __ZNSt6vectorIiSaIiEEC1EmRKiRKS0_, symObjAddr: 0xAAC, symBinAddr: 0x10000498C, symSize: 0x70 }
  - { offset: 0x113A3, size: 0x8, addend: 0x0, symName: __ZNSt6vectorIiSaIiEEixEm, symObjAddr: 0xA84, symBinAddr: 0x100004964, symSize: 0x28 }
  - { offset: 0x113DB, size: 0x8, addend: 0x0, symName: __ZNSt6vectorIS_IiSaIiEESaIS1_EEixEm, symObjAddr: 0xA50, symBinAddr: 0x100004930, symSize: 0x34 }
  - { offset: 0x11434, size: 0x8, addend: 0x0, symName: __ZNSt6vectorIS_IiSaIiEESaIS1_EED1Ev, symObjAddr: 0x9F4, symBinAddr: 0x1000048D4, symSize: 0x5C }
  - { offset: 0x114C9, size: 0x8, addend: 0x0, symName: __ZNSt6vectorIS_IiSaIiEESaIS1_EEC1EmRKS1_RKS2_, symObjAddr: 0x984, symBinAddr: 0x100004864, symSize: 0x70 }
  - { offset: 0x11557, size: 0x8, addend: 0x0, symName: __ZNSt6vectorIiSaIiEED1Ev, symObjAddr: 0x928, symBinAddr: 0x100004808, symSize: 0x5C }
  - { offset: 0x115DF, size: 0x8, addend: 0x0, symName: __ZNSt6vectorIiSaIiEEC1EmRKS0_, symObjAddr: 0x8C0, symBinAddr: 0x1000047A0, symSize: 0x68 }
  - { offset: 0x11648, size: 0x8, addend: 0x0, symName: _main, symObjAddr: 0x1AC, symBinAddr: 0x10000408C, symSize: 0x714 }
  - { offset: 0x11A67, size: 0x8, addend: 0x0, symName: __ZNSt10__pair_getILm1EE10__move_getIiiEEOT0_OSt4pairIT_S2_E, symObjAddr: 0x18C, symBinAddr: 0x10000406C, symSize: 0x20 }
  - { offset: 0x11AA1, size: 0x8, addend: 0x0, symName: __ZSt3getILm1EiiEONSt13tuple_elementIXT_ESt4pairIT0_T1_EE4typeEOS4_, symObjAddr: 0x16C, symBinAddr: 0x10000404C, symSize: 0x20 }
  - { offset: 0x11AE5, size: 0x8, addend: 0x0, symName: __ZNSt10__pair_getILm0EE10__move_getIiiEEOT_OSt4pairIS2_T0_E, symObjAddr: 0x150, symBinAddr: 0x100004030, symSize: 0x1C }
  - { offset: 0x11B25, size: 0x8, addend: 0x0, symName: __ZSt4moveIRSt4pairIiiEEONSt16remove_referenceIT_E4typeEOS4_, symObjAddr: 0x13C, symBinAddr: 0x10000401C, symSize: 0x14 }
  - { offset: 0x11B55, size: 0x8, addend: 0x0, symName: __ZSt3getILm0EiiEONSt13tuple_elementIXT_ESt4pairIT0_T1_EE4typeEOS4_, symObjAddr: 0x11C, symBinAddr: 0x100003FFC, symSize: 0x20 }
  - { offset: 0x11B9F, size: 0x8, addend: 0x0, symName: __ZSt7forwardISt4pairIiiEEOT_RNSt16remove_referenceIS2_E4typeE, symObjAddr: 0x108, symBinAddr: 0x100003FE8, symSize: 0x14 }
  - { offset: 0x11BCF, size: 0x8, addend: 0x0, symName: __ZNSt10__pair_getILm1EE10__move_getIiSt4pairIiiEEEOT0_OS2_IT_S4_E, symObjAddr: 0xE8, symBinAddr: 0x100003FC8, symSize: 0x20 }
  - { offset: 0x11C09, size: 0x8, addend: 0x0, symName: __ZSt3getILm1EiSt4pairIiiEEONSt13tuple_elementIXT_ES0_IT0_T1_EE4typeEOS5_, symObjAddr: 0xC8, symBinAddr: 0x100003FA8, symSize: 0x20 }
  - { offset: 0x11C53, size: 0x8, addend: 0x0, symName: __ZSt7forwardIiEOT_RNSt16remove_referenceIS0_E4typeE, symObjAddr: 0xB4, symBinAddr: 0x100003F94, symSize: 0x14 }
  - { offset: 0x11C83, size: 0x8, addend: 0x0, symName: __ZNSt10__pair_getILm0EE10__move_getIiSt4pairIiiEEEOT_OS2_IS4_T0_E, symObjAddr: 0x98, symBinAddr: 0x100003F78, symSize: 0x1C }
  - { offset: 0x11CC3, size: 0x8, addend: 0x0, symName: __ZSt4moveIRSt4pairIiS0_IiiEEEONSt16remove_referenceIT_E4typeEOS5_, symObjAddr: 0x84, symBinAddr: 0x100003F64, symSize: 0x14 }
  - { offset: 0x11CF3, size: 0x8, addend: 0x0, symName: __ZSt3getILm0EiSt4pairIiiEEONSt13tuple_elementIXT_ES0_IT0_T1_EE4typeEOS5_, symObjAddr: 0x64, symBinAddr: 0x100003F44, symSize: 0x20 }
  - { offset: 0x11D61, size: 0x8, addend: 0x0, symName: __ZNSt14priority_queueISt4pairIiS0_IiiEESt6vectorIS2_SaIS2_EESt7greaterIvEED1Ev, symObjAddr: 0x44, symBinAddr: 0x100003F24, symSize: 0x20 }
  - { offset: 0x11D81, size: 0x8, addend: 0x0, symName: __ZSt17__size_to_integerm, symObjAddr: 0x30, symBinAddr: 0x100003F10, symSize: 0x14 }
  - { offset: 0x11DB1, size: 0x8, addend: 0x0, symName: __ZdlPvS_, symObjAddr: 0x18, symBinAddr: 0x100003EF8, symSize: 0x18 }
  - { offset: 0x11DE5, size: 0x8, addend: 0x0, symName: __ZnwmPv, symObjAddr: 0x0, symBinAddr: 0x100003EE0, symSize: 0x18 }
...
